

HI-TECH Software PIC PRO Macro Assembler V9.82 build 9453 
                                                                                               Wed Oct 26 19:06:44 2011

HI-TECH Software Omniscient Code Generator (PRO mode) build 9453
     1                           	processor	16F877A
     2                           	opt	pw 120
     3                           	opt	pm
     4                           	psect	config,global,class=CONFIG,delta=2
     5                           	psect	stringtext,global,reloc=256,class=STRCODE,delta=2
     6                           	psect	cinit,global,class=CODE,delta=2
     7                           	psect	bssBANK0,global,class=BANK0,space=1,delta=1
     8                           	psect	cstackCOMMON,global,class=COMMON,space=1,delta=1
     9                           	psect	cstackBANK0,global,class=BANK0,space=1,delta=1
    10                           	psect	maintext,global,class=CODE,delta=2
    11                           	psect	text300,local,class=CODE,delta=2
    12                           	psect	text301,local,class=CODE,delta=2
    13                           	psect	text312,local,class=CODE,delta=2
    14                           	psect	text313,local,class=CODE,delta=2
    15                           	psect	pa_nodes,global,class=CODE,delta=2
    16                           	dabs	1,0x7E,2
    17  000A                     	;#
    18                           
    19                           	psect	config
    20  2007  1832               	dw	6194	;#
    21                           
    22                           	psect	stringtext
    23  1700                     __pstringtext:	
    24  1700                     stringtab:	
    25                           ;	global	stringtab,__stringbase
    26                           
    27                           
    28                           ;	String table - string pointers are 2 bytes each
    29  1700  1BFF               	btfsc	btemp+1,7
    30  1701  2F0A               	ljmp	stringcode
    31  1702  1383               	bcf	3,7
    32  1703  187F               	btfsc	btemp+1,0
    33  1704  1783               	bsf	3,7
    34  1705  0800               	movf	0,w
    35  1706  0A84               	incf	4,f
    36  1707  1903               	skipnz
    37  1708  0AFF               	incf	btemp+1,f
    38  1709  0008               	return
    39  170A                     stringcode:	
    40  170A  087F               	movf	btemp+1,w
    41  170B  397F               	andlw	127
    42  170C  008A               	movwf	10
    43  170D  0804               	movf	4,w
    44  170E  0A84               	incf	4,f
    45  170F  1903               	skipnz
    46  1710  0AFF               	incf	btemp+1,f
    47  1711  0082               	movwf	2
    48  1712                     __stringbase:	
    49  1712                     _colorfol:	
    50  1712  3400               	retlw	0
    51  1713  34F8               	retlw	248
    52  1714  34E0               	retlw	224
    53  1715  3407               	retlw	7
    54  1716  341F               	retlw	31
    55  1717  3400               	retlw	0
    56  1718  34E0               	retlw	224
    57  1719  34FF               	retlw	255
    58  171A  3400               	retlw	0
    59  171B  3400               	retlw	0
    60  171C  34FF               	retlw	255
    61  171D  34FF               	retlw	255
    62  171E  34FF               	retlw	255
    63  171F  3407               	retlw	7
    64  1720  341F               	retlw	31
    65  1721  34F8               	retlw	248
    66  1722                     _ascii:	
    67  1722  3400               	retlw	0
    68  1723  3400               	retlw	0
    69  1724  3400               	retlw	0
    70  1725  3400               	retlw	0
    71  1726  3400               	retlw	0
    72  1727  3400               	retlw	0
    73  1728  3400               	retlw	0
    74  1729  3400               	retlw	0
    75  172A  3400               	retlw	0
    76  172B  3400               	retlw	0
    77  172C  3400               	retlw	0
    78  172D  3400               	retlw	0
    79  172E  3400               	retlw	0
    80  172F  3400               	retlw	0
    81  1730  3400               	retlw	0
    82  1731  3400               	retlw	0
    83  1732  3400               	retlw	0
    84  1733  3400               	retlw	0
    85  1734  3400               	retlw	0
    86  1735  3400               	retlw	0
    87  1736  3400               	retlw	0
    88  1737  3400               	retlw	0
    89  1738  3400               	retlw	0
    90  1739  340F               	retlw	15
    91  173A  3408               	retlw	8
    92  173B  3408               	retlw	8
    93  173C  3408               	retlw	8
    94  173D  3408               	retlw	8
    95  173E  3408               	retlw	8
    96  173F  3408               	retlw	8
    97  1740  3408               	retlw	8
    98  1741  3400               	retlw	0
    99  1742  3400               	retlw	0
   100  1743  3400               	retlw	0
   101  1744  3400               	retlw	0
   102  1745  3400               	retlw	0
   103  1746  3400               	retlw	0
   104  1747  3400               	retlw	0
   105  1748  3400               	retlw	0
   106  1749  34F8               	retlw	248
   107  174A  3408               	retlw	8
   108  174B  3408               	retlw	8
   109  174C  3408               	retlw	8
   110  174D  3408               	retlw	8
   111  174E  3408               	retlw	8
   112  174F  3408               	retlw	8
   113  1750  3408               	retlw	8
   114  1751  3400               	retlw	0
   115  1752  3408               	retlw	8
   116  1753  3408               	retlw	8
   117  1754  3408               	retlw	8
   118  1755  3408               	retlw	8
   119  1756  3408               	retlw	8
   120  1757  3408               	retlw	8
   121  1758  3408               	retlw	8
   122  1759  340F               	retlw	15
   123  175A  3400               	retlw	0
   124  175B  3400               	retlw	0
   125  175C  3400               	retlw	0
   126  175D  3400               	retlw	0
   127  175E  3400               	retlw	0
   128  175F  3400               	retlw	0
   129  1760  3400               	retlw	0
   130  1761  3400               	retlw	0
   131  1762  3408               	retlw	8
   132  1763  3408               	retlw	8
   133  1764  3408               	retlw	8
   134  1765  3408               	retlw	8
   135  1766  3408               	retlw	8
   136  1767  3408               	retlw	8
   137  1768  3408               	retlw	8
   138  1769  34F8               	retlw	248
   139  176A  3400               	retlw	0
   140  176B  3400               	retlw	0
   141  176C  3400               	retlw	0
   142  176D  3400               	retlw	0
   143  176E  3400               	retlw	0
   144  176F  3400               	retlw	0
   145  1770  3400               	retlw	0
   146  1771  3400               	retlw	0
   147  1772  3408               	retlw	8
   148  1773  3408               	retlw	8
   149  1774  3408               	retlw	8
   150  1775  3408               	retlw	8
   151  1776  3408               	retlw	8
   152  1777  3408               	retlw	8
   153  1778  3408               	retlw	8
   154  1779  3408               	retlw	8
   155  177A  3408               	retlw	8
   156  177B  3408               	retlw	8
   157  177C  3408               	retlw	8
   158  177D  3408               	retlw	8
   159  177E  3408               	retlw	8
   160  177F  3408               	retlw	8
   161  1780  3408               	retlw	8
   162  1781  3400               	retlw	0
   163  1782  3400               	retlw	0
   164  1783  3400               	retlw	0
   165  1784  3400               	retlw	0
   166  1785  3400               	retlw	0
   167  1786  3400               	retlw	0
   168  1787  3400               	retlw	0
   169  1788  3400               	retlw	0
   170  1789  34FF               	retlw	255
   171  178A  3400               	retlw	0
   172  178B  3400               	retlw	0
   173  178C  3400               	retlw	0
   174  178D  3400               	retlw	0
   175  178E  3400               	retlw	0
   176  178F  3400               	retlw	0
   177  1790  3400               	retlw	0
   178  1791  3400               	retlw	0
   179  1792  3400               	retlw	0
   180  1793  3400               	retlw	0
   181  1794  3400               	retlw	0
   182  1795  3418               	retlw	24
   183  1796  343C               	retlw	60
   184  1797  347E               	retlw	126
   185  1798  347E               	retlw	126
   186  1799  347E               	retlw	126
   187  179A  343C               	retlw	60
   188  179B  3418               	retlw	24
   189  179C  3400               	retlw	0
   190  179D  3400               	retlw	0
   191  179E  3400               	retlw	0
   192  179F  3400               	retlw	0
   193  17A0  3400               	retlw	0
   194  17A1  3400               	retlw	0
   195  17A2  34FF               	retlw	255
   196  17A3  34FF               	retlw	255
   197  17A4  34FF               	retlw	255
   198  17A5  34E7               	retlw	231
   199  17A6  34C3               	retlw	195
   200  17A7  3481               	retlw	129
   201  17A8  3481               	retlw	129
   202  17A9  3481               	retlw	129
   203  17AA  34C3               	retlw	195
   204  17AB  34E7               	retlw	231
   205  17AC  34FF               	retlw	255
   206  17AD  34FF               	retlw	255
   207  17AE  34FF               	retlw	255
   208  17AF  34FF               	retlw	255
   209  17B0  34FF               	retlw	255
   210  17B1  3400               	retlw	0
   211  17B2  3400               	retlw	0
   212  17B3  3400               	retlw	0
   213  17B4  3400               	retlw	0
   214  17B5  3400               	retlw	0
   215  17B6  3400               	retlw	0
   216  17B7  3400               	retlw	0
   217  17B8  3400               	retlw	0
   218  17B9  3400               	retlw	0
   219  17BA  3400               	retlw	0
   220  17BB  3400               	retlw	0
   221  17BC  3400               	retlw	0
   222  17BD  3400               	retlw	0
   223  17BE  3400               	retlw	0
   224  17BF  3400               	retlw	0
   225  17C0  3400               	retlw	0
   226  17C1  3400               	retlw	0
   227  17C2  3400               	retlw	0
   228  17C3  3400               	retlw	0
   229  17C4  3400               	retlw	0
   230  17C5  3400               	retlw	0
   231  17C6  3400               	retlw	0
   232  17C7  3400               	retlw	0
   233  17C8  3400               	retlw	0
   234  17C9  3400               	retlw	0
   235  17CA  3400               	retlw	0
   236  17CB  3400               	retlw	0
   237  17CC  3400               	retlw	0
   238  17CD  3400               	retlw	0
   239  17CE  3400               	retlw	0
   240  17CF  3400               	retlw	0
   241  17D0  3400               	retlw	0
   242  17D1  3400               	retlw	0
   243  17D2  3400               	retlw	0
   244  17D3  341F               	retlw	31
   245  17D4  3405               	retlw	5
   246  17D5  3405               	retlw	5
   247  17D6  3409               	retlw	9
   248  17D7  3409               	retlw	9
   249  17D8  3410               	retlw	16
   250  17D9  3410               	retlw	16
   251  17DA  3438               	retlw	56
   252  17DB  3444               	retlw	68
   253  17DC  3444               	retlw	68
   254  17DD  3444               	retlw	68
   255  17DE  3438               	retlw	56
   256  17DF  3400               	retlw	0
   257  17E0  3400               	retlw	0
   258  17E1  3400               	retlw	0
   259  17E2  3400               	retlw	0
   260  17E3  341C               	retlw	28
   261  17E4  3422               	retlw	34
   262  17E5  3422               	retlw	34
   263  17E6  3422               	retlw	34
   264  17E7  341C               	retlw	28
   265  17E8  3408               	retlw	8
   266  17E9  3408               	retlw	8
   267  17EA  347F               	retlw	127
   268  17EB  3408               	retlw	8
   269  17EC  3408               	retlw	8
   270  17ED  3408               	retlw	8
   271  17EE  3408               	retlw	8
   272  17EF  3400               	retlw	0
   273  17F0  3400               	retlw	0
   274  17F1  3400               	retlw	0
   275  17F2  3400               	retlw	0
   276  17F3  3400               	retlw	0
   277  17F4  3400               	retlw	0
   278  17F5  3400               	retlw	0
   279  17F6  3400               	retlw	0
   280  17F7  3400               	retlw	0
   281  17F8  3400               	retlw	0
   282  17F9  3400               	retlw	0
   283  17FA  3400               	retlw	0
   284  17FB  3400               	retlw	0
   285  17FC  3400               	retlw	0
   286  17FD  3400               	retlw	0
   287  17FE  3400               	retlw	0
   288  17FF  3400               	retlw	0
   289  1800  3400               	retlw	0
   290  1801  3400               	retlw	0
   291  1802  3403               	retlw	3
   292  1803  341D               	retlw	29
   293  1804  3411               	retlw	17
   294  1805  3413               	retlw	19
   295  1806  341D               	retlw	29
   296  1807  3411               	retlw	17
   297  1808  3411               	retlw	17
   298  1809  3411               	retlw	17
   299  180A  3413               	retlw	19
   300  180B  3417               	retlw	23
   301  180C  3436               	retlw	54
   302  180D  3470               	retlw	112
   303  180E  3460               	retlw	96
   304  180F  3400               	retlw	0
   305  1810  3400               	retlw	0
   306  1811  3400               	retlw	0
   307  1812  3408               	retlw	8
   308  1813  3408               	retlw	8
   309  1814  345D               	retlw	93
   310  1815  3422               	retlw	34
   311  1816  3422               	retlw	34
   312  1817  3422               	retlw	34
   313  1818  3463               	retlw	99
   314  1819  3422               	retlw	34
   315  181A  3422               	retlw	34
   316  181B  3422               	retlw	34
   317  181C  345D               	retlw	93
   318  181D  3408               	retlw	8
   319  181E  3408               	retlw	8
   320  181F  3400               	retlw	0
   321  1820  3400               	retlw	0
   322  1821  3400               	retlw	0
   323  1822  3408               	retlw	8
   324  1823  3408               	retlw	8
   325  1824  3408               	retlw	8
   326  1825  3408               	retlw	8
   327  1826  3408               	retlw	8
   328  1827  3408               	retlw	8
   329  1828  3408               	retlw	8
   330  1829  34FF               	retlw	255
   331  182A  3408               	retlw	8
   332  182B  3408               	retlw	8
   333  182C  3408               	retlw	8
   334  182D  3408               	retlw	8
   335  182E  3408               	retlw	8
   336  182F  3408               	retlw	8
   337  1830  3408               	retlw	8
   338  1831  3400               	retlw	0
   339  1832  3400               	retlw	0
   340  1833  3401               	retlw	1
   341  1834  3403               	retlw	3
   342  1835  3407               	retlw	7
   343  1836  340F               	retlw	15
   344  1837  341F               	retlw	31
   345  1838  343F               	retlw	63
   346  1839  347F               	retlw	127
   347  183A  343F               	retlw	63
   348  183B  341F               	retlw	31
   349  183C  340F               	retlw	15
   350  183D  3407               	retlw	7
   351  183E  3403               	retlw	3
   352  183F  3401               	retlw	1
   353  1840  3400               	retlw	0
   354  1841  3400               	retlw	0
   355  1842  3408               	retlw	8
   356  1843  341C               	retlw	28
   357  1844  342A               	retlw	42
   358  1845  3408               	retlw	8
   359  1846  3408               	retlw	8
   360  1847  3408               	retlw	8
   361  1848  3408               	retlw	8
   362  1849  3408               	retlw	8
   363  184A  3408               	retlw	8
   364  184B  3408               	retlw	8
   365  184C  3408               	retlw	8
   366  184D  342A               	retlw	42
   367  184E  341C               	retlw	28
   368  184F  3408               	retlw	8
   369  1850  3400               	retlw	0
   370  1851  3400               	retlw	0
   371  1852  3400               	retlw	0
   372  1853  3424               	retlw	36
   373  1854  3424               	retlw	36
   374  1855  3424               	retlw	36
   375  1856  3424               	retlw	36
   376  1857  3424               	retlw	36
   377  1858  3424               	retlw	36
   378  1859  3424               	retlw	36
   379  185A  3424               	retlw	36
   380  185B  3424               	retlw	36
   381  185C  3400               	retlw	0
   382  185D  3400               	retlw	0
   383  185E  3424               	retlw	36
   384  185F  3424               	retlw	36
   385  1860  3400               	retlw	0
   386  1861  3400               	retlw	0
   387  1862  3400               	retlw	0
   388  1863  341F               	retlw	31
   389  1864  3425               	retlw	37
   390  1865  3445               	retlw	69
   391  1866  3445               	retlw	69
   392  1867  3445               	retlw	69
   393  1868  3425               	retlw	37
   394  1869  341D               	retlw	29
   395  186A  3405               	retlw	5
   396  186B  3405               	retlw	5
   397  186C  3405               	retlw	5
   398  186D  3405               	retlw	5
   399  186E  3405               	retlw	5
   400  186F  3400               	retlw	0
   401  1870  3400               	retlw	0
   402  1871  3400               	retlw	0
   403  1872  3408               	retlw	8
   404  1873  3408               	retlw	8
   405  1874  3408               	retlw	8
   406  1875  3408               	retlw	8
   407  1876  3408               	retlw	8
   408  1877  3408               	retlw	8
   409  1878  3408               	retlw	8
   410  1879  34FF               	retlw	255
   411  187A  3400               	retlw	0
   412  187B  3400               	retlw	0
   413  187C  3400               	retlw	0
   414  187D  3400               	retlw	0
   415  187E  3400               	retlw	0
   416  187F  3400               	retlw	0
   417  1880  3400               	retlw	0
   418  1881  3400               	retlw	0
   419  1882  3400               	retlw	0
   420  1883  3400               	retlw	0
   421  1884  3400               	retlw	0
   422  1885  3400               	retlw	0
   423  1886  3400               	retlw	0
   424  1887  3400               	retlw	0
   425  1888  3400               	retlw	0
   426  1889  34FF               	retlw	255
   427  188A  3408               	retlw	8
   428  188B  3408               	retlw	8
   429  188C  3408               	retlw	8
   430  188D  3408               	retlw	8
   431  188E  3408               	retlw	8
   432  188F  3408               	retlw	8
   433  1890  3408               	retlw	8
   434  1891  3400               	retlw	0
   435  1892  3408               	retlw	8
   436  1893  3408               	retlw	8
   437  1894  3408               	retlw	8
   438  1895  3408               	retlw	8
   439  1896  3408               	retlw	8
   440  1897  3408               	retlw	8
   441  1898  3408               	retlw	8
   442  1899  34F8               	retlw	248
   443  189A  3408               	retlw	8
   444  189B  3408               	retlw	8
   445  189C  3408               	retlw	8
   446  189D  3408               	retlw	8
   447  189E  3408               	retlw	8
   448  189F  3408               	retlw	8
   449  18A0  3408               	retlw	8
   450  18A1  3400               	retlw	0
   451  18A2  3408               	retlw	8
   452  18A3  341C               	retlw	28
   453  18A4  342A               	retlw	42
   454  18A5  3408               	retlw	8
   455  18A6  3408               	retlw	8
   456  18A7  3408               	retlw	8
   457  18A8  3408               	retlw	8
   458  18A9  3408               	retlw	8
   459  18AA  3408               	retlw	8
   460  18AB  3408               	retlw	8
   461  18AC  3408               	retlw	8
   462  18AD  3408               	retlw	8
   463  18AE  3408               	retlw	8
   464  18AF  3408               	retlw	8
   465  18B0  3400               	retlw	0
   466  18B1  3400               	retlw	0
   467  18B2  3408               	retlw	8
   468  18B3  3408               	retlw	8
   469  18B4  3408               	retlw	8
   470  18B5  3408               	retlw	8
   471  18B6  3408               	retlw	8
   472  18B7  3408               	retlw	8
   473  18B8  3408               	retlw	8
   474  18B9  340F               	retlw	15
   475  18BA  3408               	retlw	8
   476  18BB  3408               	retlw	8
   477  18BC  3408               	retlw	8
   478  18BD  3408               	retlw	8
   479  18BE  3408               	retlw	8
   480  18BF  3408               	retlw	8
   481  18C0  3408               	retlw	8
   482  18C1  3400               	retlw	0
   483  18C2  3400               	retlw	0
   484  18C3  3400               	retlw	0
   485  18C4  3400               	retlw	0
   486  18C5  3400               	retlw	0
   487  18C6  3400               	retlw	0
   488  18C7  3404               	retlw	4
   489  18C8  3402               	retlw	2
   490  18C9  347F               	retlw	127
   491  18CA  3402               	retlw	2
   492  18CB  3404               	retlw	4
   493  18CC  3400               	retlw	0
   494  18CD  3400               	retlw	0
   495  18CE  3400               	retlw	0
   496  18CF  3400               	retlw	0
   497  18D0  3400               	retlw	0
   498  18D1  3400               	retlw	0
   499  18D2  3400               	retlw	0
   500  18D3  3400               	retlw	0
   501  18D4  3400               	retlw	0
   502  18D5  3400               	retlw	0
   503  18D6  3400               	retlw	0
   504  18D7  3410               	retlw	16
   505  18D8  3420               	retlw	32
   506  18D9  347F               	retlw	127
   507  18DA  3420               	retlw	32
   508  18DB  3410               	retlw	16
   509  18DC  3400               	retlw	0
   510  18DD  3400               	retlw	0
   511  18DE  3400               	retlw	0
   512  18DF  3400               	retlw	0
   513  18E0  3400               	retlw	0
   514  18E1  3400               	retlw	0
   515  18E2  3400               	retlw	0
   516  18E3  3400               	retlw	0
   517  18E4  3400               	retlw	0
   518  18E5  3400               	retlw	0
   519  18E6  3400               	retlw	0
   520  18E7  3400               	retlw	0
   521  18E8  3400               	retlw	0
   522  18E9  3400               	retlw	0
   523  18EA  3400               	retlw	0
   524  18EB  3400               	retlw	0
   525  18EC  3400               	retlw	0
   526  18ED  3400               	retlw	0
   527  18EE  3400               	retlw	0
   528  18EF  3400               	retlw	0
   529  18F0  3400               	retlw	0
   530  18F1  3400               	retlw	0
   531  18F2  3400               	retlw	0
   532  18F3  3400               	retlw	0
   533  18F4  3400               	retlw	0
   534  18F5  3400               	retlw	0
   535  18F6  3400               	retlw	0
   536  18F7  3400               	retlw	0
   537  18F8  3400               	retlw	0
   538  18F9  3400               	retlw	0
   539  18FA  3400               	retlw	0
   540  18FB  3400               	retlw	0
   541  18FC  3400               	retlw	0
   542  18FD  3400               	retlw	0
   543  18FE  3400               	retlw	0
   544  18FF  3400               	retlw	0
   545  1900  3400               	retlw	0
   546  1901  3400               	retlw	0
   547  1902  3400               	retlw	0
   548  1903  3400               	retlw	0
   549  1904  3400               	retlw	0
   550  1905  3400               	retlw	0
   551  1906  3400               	retlw	0
   552  1907  3400               	retlw	0
   553  1908  3400               	retlw	0
   554  1909  3400               	retlw	0
   555  190A  3400               	retlw	0
   556  190B  3400               	retlw	0
   557  190C  3400               	retlw	0
   558  190D  3400               	retlw	0
   559  190E  3400               	retlw	0
   560  190F  3400               	retlw	0
   561  1910  3400               	retlw	0
   562  1911  3400               	retlw	0
   563  1912  3400               	retlw	0
   564  1913  3400               	retlw	0
   565  1914  3400               	retlw	0
   566  1915  3400               	retlw	0
   567  1916  3400               	retlw	0
   568  1917  3400               	retlw	0
   569  1918  3400               	retlw	0
   570  1919  3400               	retlw	0
   571  191A  3400               	retlw	0
   572  191B  3400               	retlw	0
   573  191C  3400               	retlw	0
   574  191D  3400               	retlw	0
   575  191E  3400               	retlw	0
   576  191F  3400               	retlw	0
   577  1920  3400               	retlw	0
   578  1921  3400               	retlw	0
   579  1922  3400               	retlw	0
   580  1923  3400               	retlw	0
   581  1924  3400               	retlw	0
   582  1925  3400               	retlw	0
   583  1926  3400               	retlw	0
   584  1927  3400               	retlw	0
   585  1928  3400               	retlw	0
   586  1929  3400               	retlw	0
   587  192A  3400               	retlw	0
   588  192B  3400               	retlw	0
   589  192C  3400               	retlw	0
   590  192D  3400               	retlw	0
   591  192E  3400               	retlw	0
   592  192F  3400               	retlw	0
   593  1930  3400               	retlw	0
   594  1931  3400               	retlw	0
   595  1932  3400               	retlw	0
   596  1933  3400               	retlw	0
   597  1934  3410               	retlw	16
   598  1935  3410               	retlw	16
   599  1936  3410               	retlw	16
   600  1937  3410               	retlw	16
   601  1938  3410               	retlw	16
   602  1939  3410               	retlw	16
   603  193A  3410               	retlw	16
   604  193B  3400               	retlw	0
   605  193C  3400               	retlw	0
   606  193D  3418               	retlw	24
   607  193E  3418               	retlw	24
   608  193F  3400               	retlw	0
   609  1940  3400               	retlw	0
   610  1941  3400               	retlw	0
   611  1942  3412               	retlw	18
   612  1943  3436               	retlw	54
   613  1944  3424               	retlw	36
   614  1945  3448               	retlw	72
   615  1946  3400               	retlw	0
   616  1947  3400               	retlw	0
   617  1948  3400               	retlw	0
   618  1949  3400               	retlw	0
   619  194A  3400               	retlw	0
   620  194B  3400               	retlw	0
   621  194C  3400               	retlw	0
   622  194D  3400               	retlw	0
   623  194E  3400               	retlw	0
   624  194F  3400               	retlw	0
   625  1950  3400               	retlw	0
   626  1951  3400               	retlw	0
   627  1952  3400               	retlw	0
   628  1953  3400               	retlw	0
   629  1954  3424               	retlw	36
   630  1955  3424               	retlw	36
   631  1956  3424               	retlw	36
   632  1957  34FE               	retlw	254
   633  1958  3448               	retlw	72
   634  1959  3448               	retlw	72
   635  195A  3448               	retlw	72
   636  195B  34FE               	retlw	254
   637  195C  3448               	retlw	72
   638  195D  3448               	retlw	72
   639  195E  3448               	retlw	72
   640  195F  3400               	retlw	0
   641  1960  3400               	retlw	0
   642  1961  3400               	retlw	0
   643  1962  3400               	retlw	0
   644  1963  3410               	retlw	16
   645  1964  3438               	retlw	56
   646  1965  3454               	retlw	84
   647  1966  3454               	retlw	84
   648  1967  3450               	retlw	80
   649  1968  3430               	retlw	48
   650  1969  3418               	retlw	24
   651  196A  3414               	retlw	20
   652  196B  3414               	retlw	20
   653  196C  3454               	retlw	84
   654  196D  3454               	retlw	84
   655  196E  3438               	retlw	56
   656  196F  3410               	retlw	16
   657  1970  3410               	retlw	16
   658  1971  3400               	retlw	0
   659  1972  3400               	retlw	0
   660  1973  3400               	retlw	0
   661  1974  3444               	retlw	68
   662  1975  34A4               	retlw	164
   663  1976  34A8               	retlw	168
   664  1977  34A8               	retlw	168
   665  1978  34A8               	retlw	168
   666  1979  3454               	retlw	84
   667  197A  341A               	retlw	26
   668  197B  342A               	retlw	42
   669  197C  342A               	retlw	42
   670  197D  342A               	retlw	42
   671  197E  3444               	retlw	68
   672  197F  3400               	retlw	0
   673  1980  3400               	retlw	0
   674  1981  3400               	retlw	0
   675  1982  3400               	retlw	0
   676  1983  3400               	retlw	0
   677  1984  3430               	retlw	48
   678  1985  3448               	retlw	72
   679  1986  3448               	retlw	72
   680  1987  3448               	retlw	72
   681  1988  3450               	retlw	80
   682  1989  346E               	retlw	110
   683  198A  34A4               	retlw	164
   684  198B  3494               	retlw	148
   685  198C  3488               	retlw	136
   686  198D  3489               	retlw	137
   687  198E  3476               	retlw	118
   688  198F  3400               	retlw	0
   689  1990  3400               	retlw	0
   690  1991  3400               	retlw	0
   691  1992  3460               	retlw	96
   692  1993  3460               	retlw	96
   693  1994  3420               	retlw	32
   694  1995  34C0               	retlw	192
   695  1996  3400               	retlw	0
   696  1997  3400               	retlw	0
   697  1998  3400               	retlw	0
   698  1999  3400               	retlw	0
   699  199A  3400               	retlw	0
   700  199B  3400               	retlw	0
   701  199C  3400               	retlw	0
   702  199D  3400               	retlw	0
   703  199E  3400               	retlw	0
   704  199F  3400               	retlw	0
   705  19A0  3400               	retlw	0
   706  19A1  3400               	retlw	0
   707  19A2  3402               	retlw	2
   708  19A3  3404               	retlw	4
   709  19A4  3408               	retlw	8
   710  19A5  3408               	retlw	8
   711  19A6  3410               	retlw	16
   712  19A7  3410               	retlw	16
   713  19A8  3410               	retlw	16
   714  19A9  3410               	retlw	16
   715  19AA  3410               	retlw	16
   716  19AB  3410               	retlw	16
   717  19AC  3408               	retlw	8
   718  19AD  3408               	retlw	8
   719  19AE  3404               	retlw	4
   720  19AF  3402               	retlw	2
   721  19B0  3400               	retlw	0
   722  19B1  3400               	retlw	0
   723  19B2  3440               	retlw	64
   724  19B3  3420               	retlw	32
   725  19B4  3410               	retlw	16
   726  19B5  3410               	retlw	16
   727  19B6  3408               	retlw	8
   728  19B7  3408               	retlw	8
   729  19B8  3408               	retlw	8
   730  19B9  3408               	retlw	8
   731  19BA  3408               	retlw	8
   732  19BB  3408               	retlw	8
   733  19BC  3410               	retlw	16
   734  19BD  3410               	retlw	16
   735  19BE  3420               	retlw	32
   736  19BF  3440               	retlw	64
   737  19C0  3400               	retlw	0
   738  19C1  3400               	retlw	0
   739  19C2  3400               	retlw	0
   740  19C3  3400               	retlw	0
   741  19C4  3400               	retlw	0
   742  19C5  3410               	retlw	16
   743  19C6  3410               	retlw	16
   744  19C7  34D6               	retlw	214
   745  19C8  3438               	retlw	56
   746  19C9  3438               	retlw	56
   747  19CA  34D6               	retlw	214
   748  19CB  3410               	retlw	16
   749  19CC  3410               	retlw	16
   750  19CD  3400               	retlw	0
   751  19CE  3400               	retlw	0
   752  19CF  3400               	retlw	0
   753  19D0  3400               	retlw	0
   754  19D1  3400               	retlw	0
   755  19D2  3400               	retlw	0
   756  19D3  3400               	retlw	0
   757  19D4  3400               	retlw	0
   758  19D5  3410               	retlw	16
   759  19D6  3410               	retlw	16
   760  19D7  3410               	retlw	16
   761  19D8  3410               	retlw	16
   762  19D9  34FE               	retlw	254
   763  19DA  3410               	retlw	16
   764  19DB  3410               	retlw	16
   765  19DC  3410               	retlw	16
   766  19DD  3410               	retlw	16
   767  19DE  3400               	retlw	0
   768  19DF  3400               	retlw	0
   769  19E0  3400               	retlw	0
   770  19E1  3400               	retlw	0
   771  19E2  3400               	retlw	0
   772  19E3  3400               	retlw	0
   773  19E4  3400               	retlw	0
   774  19E5  3400               	retlw	0
   775  19E6  3400               	retlw	0
   776  19E7  3400               	retlw	0
   777  19E8  3400               	retlw	0
   778  19E9  3400               	retlw	0
   779  19EA  3400               	retlw	0
   780  19EB  3400               	retlw	0
   781  19EC  3400               	retlw	0
   782  19ED  3460               	retlw	96
   783  19EE  3460               	retlw	96
   784  19EF  3420               	retlw	32
   785  19F0  34C0               	retlw	192
   786  19F1  3400               	retlw	0
   787  19F2  3400               	retlw	0
   788  19F3  3400               	retlw	0
   789  19F4  3400               	retlw	0
   790  19F5  3400               	retlw	0
   791  19F6  3400               	retlw	0
   792  19F7  3400               	retlw	0
   793  19F8  3400               	retlw	0
   794  19F9  347F               	retlw	127
   795  19FA  3400               	retlw	0
   796  19FB  3400               	retlw	0
   797  19FC  3400               	retlw	0
   798  19FD  3400               	retlw	0
   799  19FE  3400               	retlw	0
   800  19FF  3400               	retlw	0
   801  1A00  3400               	retlw	0
   802  1A01  3400               	retlw	0
   803  1A02  3400               	retlw	0
   804  1A03  3400               	retlw	0
   805  1A04  3400               	retlw	0
   806  1A05  3400               	retlw	0
   807  1A06  3400               	retlw	0
   808  1A07  3400               	retlw	0
   809  1A08  3400               	retlw	0
   810  1A09  3400               	retlw	0
   811  1A0A  3400               	retlw	0
   812  1A0B  3400               	retlw	0
   813  1A0C  3400               	retlw	0
   814  1A0D  3460               	retlw	96
   815  1A0E  3460               	retlw	96
   816  1A0F  3400               	retlw	0
   817  1A10  3400               	retlw	0
   818  1A11  3400               	retlw	0
   819  1A12  3400               	retlw	0
   820  1A13  3401               	retlw	1
   821  1A14  3402               	retlw	2
   822  1A15  3402               	retlw	2
   823  1A16  3404               	retlw	4
   824  1A17  3404               	retlw	4
   825  1A18  3408               	retlw	8
   826  1A19  3408               	retlw	8
   827  1A1A  3410               	retlw	16
   828  1A1B  3410               	retlw	16
   829  1A1C  3420               	retlw	32
   830  1A1D  3420               	retlw	32
   831  1A1E  3440               	retlw	64
   832  1A1F  3440               	retlw	64
   833  1A20  3400               	retlw	0
   834  1A21  3400               	retlw	0
   835  1A22  3400               	retlw	0
   836  1A23  3400               	retlw	0
   837  1A24  3418               	retlw	24
   838  1A25  3424               	retlw	36
   839  1A26  3442               	retlw	66
   840  1A27  3442               	retlw	66
   841  1A28  3442               	retlw	66
   842  1A29  3442               	retlw	66
   843  1A2A  3442               	retlw	66
   844  1A2B  3442               	retlw	66
   845  1A2C  3442               	retlw	66
   846  1A2D  3424               	retlw	36
   847  1A2E  3418               	retlw	24
   848  1A2F  3400               	retlw	0
   849  1A30  3400               	retlw	0
   850  1A31  3400               	retlw	0
   851  1A32  3400               	retlw	0
   852  1A33  3400               	retlw	0
   853  1A34  3410               	retlw	16
   854  1A35  3470               	retlw	112
   855  1A36  3410               	retlw	16
   856  1A37  3410               	retlw	16
   857  1A38  3410               	retlw	16
   858  1A39  3410               	retlw	16
   859  1A3A  3410               	retlw	16
   860  1A3B  3410               	retlw	16
   861  1A3C  3410               	retlw	16
   862  1A3D  3410               	retlw	16
   863  1A3E  347C               	retlw	124
   864  1A3F  3400               	retlw	0
   865  1A40  3400               	retlw	0
   866  1A41  3400               	retlw	0
   867  1A42  3400               	retlw	0
   868  1A43  3400               	retlw	0
   869  1A44  343C               	retlw	60
   870  1A45  3442               	retlw	66
   871  1A46  3442               	retlw	66
   872  1A47  3442               	retlw	66
   873  1A48  3404               	retlw	4
   874  1A49  3404               	retlw	4
   875  1A4A  3408               	retlw	8
   876  1A4B  3410               	retlw	16
   877  1A4C  3420               	retlw	32
   878  1A4D  3442               	retlw	66
   879  1A4E  347E               	retlw	126
   880  1A4F  3400               	retlw	0
   881  1A50  3400               	retlw	0
   882  1A51  3400               	retlw	0
   883  1A52  3400               	retlw	0
   884  1A53  3400               	retlw	0
   885  1A54  343C               	retlw	60
   886  1A55  3442               	retlw	66
   887  1A56  3442               	retlw	66
   888  1A57  3404               	retlw	4
   889  1A58  3418               	retlw	24
   890  1A59  3404               	retlw	4
   891  1A5A  3402               	retlw	2
   892  1A5B  3402               	retlw	2
   893  1A5C  3442               	retlw	66
   894  1A5D  3444               	retlw	68
   895  1A5E  3438               	retlw	56
   896  1A5F  3400               	retlw	0
   897  1A60  3400               	retlw	0
   898  1A61  3400               	retlw	0
   899  1A62  3400               	retlw	0
   900  1A63  3400               	retlw	0
   901  1A64  3404               	retlw	4
   902  1A65  340C               	retlw	12
   903  1A66  3414               	retlw	20
   904  1A67  3424               	retlw	36
   905  1A68  3424               	retlw	36
   906  1A69  3444               	retlw	68
   907  1A6A  3444               	retlw	68
   908  1A6B  347E               	retlw	126
   909  1A6C  3404               	retlw	4
   910  1A6D  3404               	retlw	4
   911  1A6E  341E               	retlw	30
   912  1A6F  3400               	retlw	0
   913  1A70  3400               	retlw	0
   914  1A71  3400               	retlw	0
   915  1A72  3400               	retlw	0
   916  1A73  3400               	retlw	0
   917  1A74  347E               	retlw	126
   918  1A75  3440               	retlw	64
   919  1A76  3440               	retlw	64
   920  1A77  3440               	retlw	64
   921  1A78  3458               	retlw	88
   922  1A79  3464               	retlw	100
   923  1A7A  3402               	retlw	2
   924  1A7B  3402               	retlw	2
   925  1A7C  3442               	retlw	66
   926  1A7D  3444               	retlw	68
   927  1A7E  3438               	retlw	56
   928  1A7F  3400               	retlw	0
   929  1A80  3400               	retlw	0
   930  1A81  3400               	retlw	0
   931  1A82  3400               	retlw	0
   932  1A83  3400               	retlw	0
   933  1A84  341C               	retlw	28
   934  1A85  3424               	retlw	36
   935  1A86  3440               	retlw	64
   936  1A87  3440               	retlw	64
   937  1A88  3458               	retlw	88
   938  1A89  3464               	retlw	100
   939  1A8A  3442               	retlw	66
   940  1A8B  3442               	retlw	66
   941  1A8C  3442               	retlw	66
   942  1A8D  3424               	retlw	36
   943  1A8E  3418               	retlw	24
   944  1A8F  3400               	retlw	0
   945  1A90  3400               	retlw	0
   946  1A91  3400               	retlw	0
   947  1A92  3400               	retlw	0
   948  1A93  3400               	retlw	0
   949  1A94  347E               	retlw	126
   950  1A95  3444               	retlw	68
   951  1A96  3444               	retlw	68
   952  1A97  3408               	retlw	8
   953  1A98  3408               	retlw	8
   954  1A99  3410               	retlw	16
   955  1A9A  3410               	retlw	16
   956  1A9B  3410               	retlw	16
   957  1A9C  3410               	retlw	16
   958  1A9D  3410               	retlw	16
   959  1A9E  3410               	retlw	16
   960  1A9F  3400               	retlw	0
   961  1AA0  3400               	retlw	0
   962  1AA1  3400               	retlw	0
   963  1AA2  3400               	retlw	0
   964  1AA3  3400               	retlw	0
   965  1AA4  343C               	retlw	60
   966  1AA5  3442               	retlw	66
   967  1AA6  3442               	retlw	66
   968  1AA7  3442               	retlw	66
   969  1AA8  3424               	retlw	36
   970  1AA9  3418               	retlw	24
   971  1AAA  3424               	retlw	36
   972  1AAB  3442               	retlw	66
   973  1AAC  3442               	retlw	66
   974  1AAD  3442               	retlw	66
   975  1AAE  343C               	retlw	60
   976  1AAF  3400               	retlw	0
   977  1AB0  3400               	retlw	0
   978  1AB1  3400               	retlw	0
   979  1AB2  3400               	retlw	0
   980  1AB3  3400               	retlw	0
   981  1AB4  3418               	retlw	24
   982  1AB5  3424               	retlw	36
   983  1AB6  3442               	retlw	66
   984  1AB7  3442               	retlw	66
   985  1AB8  3442               	retlw	66
   986  1AB9  3426               	retlw	38
   987  1ABA  341A               	retlw	26
   988  1ABB  3402               	retlw	2
   989  1ABC  3402               	retlw	2
   990  1ABD  3424               	retlw	36
   991  1ABE  3438               	retlw	56
   992  1ABF  3400               	retlw	0
   993  1AC0  3400               	retlw	0
   994  1AC1  3400               	retlw	0
   995  1AC2  3400               	retlw	0
   996  1AC3  3400               	retlw	0
   997  1AC4  3400               	retlw	0
   998  1AC5  3400               	retlw	0
   999  1AC6  3400               	retlw	0
  1000  1AC7  3418               	retlw	24
  1001  1AC8  3418               	retlw	24
  1002  1AC9  3400               	retlw	0
  1003  1ACA  3400               	retlw	0
  1004  1ACB  3400               	retlw	0
  1005  1ACC  3400               	retlw	0
  1006  1ACD  3418               	retlw	24
  1007  1ACE  3418               	retlw	24
  1008  1ACF  3400               	retlw	0
  1009  1AD0  3400               	retlw	0
  1010  1AD1  3400               	retlw	0
  1011  1AD2  3400               	retlw	0
  1012  1AD3  3400               	retlw	0
  1013  1AD4  3400               	retlw	0
  1014  1AD5  3400               	retlw	0
  1015  1AD6  3400               	retlw	0
  1016  1AD7  3400               	retlw	0
  1017  1AD8  3410               	retlw	16
  1018  1AD9  3400               	retlw	0
  1019  1ADA  3400               	retlw	0
  1020  1ADB  3400               	retlw	0
  1021  1ADC  3400               	retlw	0
  1022  1ADD  3400               	retlw	0
  1023  1ADE  3410               	retlw	16
  1024  1ADF  3410               	retlw	16
  1025  1AE0  3420               	retlw	32
  1026  1AE1  3400               	retlw	0
  1027  1AE2  3400               	retlw	0
  1028  1AE3  3400               	retlw	0
  1029  1AE4  3402               	retlw	2
  1030  1AE5  3404               	retlw	4
  1031  1AE6  3408               	retlw	8
  1032  1AE7  3410               	retlw	16
  1033  1AE8  3420               	retlw	32
  1034  1AE9  3440               	retlw	64
  1035  1AEA  3420               	retlw	32
  1036  1AEB  3410               	retlw	16
  1037  1AEC  3408               	retlw	8
  1038  1AED  3404               	retlw	4
  1039  1AEE  3402               	retlw	2
  1040  1AEF  3400               	retlw	0
  1041  1AF0  3400               	retlw	0
  1042  1AF1  3400               	retlw	0
  1043  1AF2  3400               	retlw	0
  1044  1AF3  3400               	retlw	0
  1045  1AF4  3400               	retlw	0
  1046  1AF5  3400               	retlw	0
  1047  1AF6  3400               	retlw	0
  1048  1AF7  34FE               	retlw	254
  1049  1AF8  3400               	retlw	0
  1050  1AF9  3400               	retlw	0
  1051  1AFA  3400               	retlw	0
  1052  1AFB  34FE               	retlw	254
  1053  1AFC  3400               	retlw	0
  1054  1AFD  3400               	retlw	0
  1055  1AFE  3400               	retlw	0
  1056  1AFF  3400               	retlw	0
  1057  1B00  3400               	retlw	0
  1058  1B01  3400               	retlw	0
  1059  1B02  3400               	retlw	0
  1060  1B03  3400               	retlw	0
  1061  1B04  3440               	retlw	64
  1062  1B05  3420               	retlw	32
  1063  1B06  3410               	retlw	16
  1064  1B07  3408               	retlw	8
  1065  1B08  3404               	retlw	4
  1066  1B09  3402               	retlw	2
  1067  1B0A  3404               	retlw	4
  1068  1B0B  3408               	retlw	8
  1069  1B0C  3410               	retlw	16
  1070  1B0D  3420               	retlw	32
  1071  1B0E  3440               	retlw	64
  1072  1B0F  3400               	retlw	0
  1073  1B10  3400               	retlw	0
  1074  1B11  3400               	retlw	0
  1075  1B12  3400               	retlw	0
  1076  1B13  3400               	retlw	0
  1077  1B14  343C               	retlw	60
  1078  1B15  3442               	retlw	66
  1079  1B16  3442               	retlw	66
  1080  1B17  3462               	retlw	98
  1081  1B18  3402               	retlw	2
  1082  1B19  3404               	retlw	4
  1083  1B1A  3408               	retlw	8
  1084  1B1B  3408               	retlw	8
  1085  1B1C  3400               	retlw	0
  1086  1B1D  3418               	retlw	24
  1087  1B1E  3418               	retlw	24
  1088  1B1F  3400               	retlw	0
  1089  1B20  3400               	retlw	0
  1090  1B21  3400               	retlw	0
  1091  1B22  3400               	retlw	0
  1092  1B23  3400               	retlw	0
  1093  1B24  3438               	retlw	56
  1094  1B25  3444               	retlw	68
  1095  1B26  345A               	retlw	90
  1096  1B27  34AA               	retlw	170
  1097  1B28  34AA               	retlw	170
  1098  1B29  34AA               	retlw	170
  1099  1B2A  34AA               	retlw	170
  1100  1B2B  34B4               	retlw	180
  1101  1B2C  3442               	retlw	66
  1102  1B2D  3444               	retlw	68
  1103  1B2E  3438               	retlw	56
  1104  1B2F  3400               	retlw	0
  1105  1B30  3400               	retlw	0
  1106  1B31  3400               	retlw	0
  1107  1B32  3400               	retlw	0
  1108  1B33  3400               	retlw	0
  1109  1B34  3410               	retlw	16
  1110  1B35  3410               	retlw	16
  1111  1B36  3418               	retlw	24
  1112  1B37  3428               	retlw	40
  1113  1B38  3428               	retlw	40
  1114  1B39  3424               	retlw	36
  1115  1B3A  343C               	retlw	60
  1116  1B3B  3444               	retlw	68
  1117  1B3C  3442               	retlw	66
  1118  1B3D  3442               	retlw	66
  1119  1B3E  34E7               	retlw	231
  1120  1B3F  3400               	retlw	0
  1121  1B40  3400               	retlw	0
  1122  1B41  3400               	retlw	0
  1123  1B42  3400               	retlw	0
  1124  1B43  3400               	retlw	0
  1125  1B44  34F8               	retlw	248
  1126  1B45  3444               	retlw	68
  1127  1B46  3444               	retlw	68
  1128  1B47  3444               	retlw	68
  1129  1B48  3478               	retlw	120
  1130  1B49  3444               	retlw	68
  1131  1B4A  3442               	retlw	66
  1132  1B4B  3442               	retlw	66
  1133  1B4C  3442               	retlw	66
  1134  1B4D  3444               	retlw	68
  1135  1B4E  34F8               	retlw	248
  1136  1B4F  3400               	retlw	0
  1137  1B50  3400               	retlw	0
  1138  1B51  3400               	retlw	0
  1139  1B52  3400               	retlw	0
  1140  1B53  3400               	retlw	0
  1141  1B54  343E               	retlw	62
  1142  1B55  3442               	retlw	66
  1143  1B56  3442               	retlw	66
  1144  1B57  3480               	retlw	128
  1145  1B58  3480               	retlw	128
  1146  1B59  3480               	retlw	128
  1147  1B5A  3480               	retlw	128
  1148  1B5B  3480               	retlw	128
  1149  1B5C  3442               	retlw	66
  1150  1B5D  3444               	retlw	68
  1151  1B5E  3438               	retlw	56
  1152  1B5F  3400               	retlw	0
  1153  1B60  3400               	retlw	0
  1154  1B61  3400               	retlw	0
  1155  1B62  3400               	retlw	0
  1156  1B63  3400               	retlw	0
  1157  1B64  34F8               	retlw	248
  1158  1B65  3444               	retlw	68
  1159  1B66  3442               	retlw	66
  1160  1B67  3442               	retlw	66
  1161  1B68  3442               	retlw	66
  1162  1B69  3442               	retlw	66
  1163  1B6A  3442               	retlw	66
  1164  1B6B  3442               	retlw	66
  1165  1B6C  3442               	retlw	66
  1166  1B6D  3444               	retlw	68
  1167  1B6E  34F8               	retlw	248
  1168  1B6F  3400               	retlw	0
  1169  1B70  3400               	retlw	0
  1170  1B71  3400               	retlw	0
  1171  1B72  3400               	retlw	0
  1172  1B73  3400               	retlw	0
  1173  1B74  34FC               	retlw	252
  1174  1B75  3442               	retlw	66
  1175  1B76  3448               	retlw	72
  1176  1B77  3448               	retlw	72
  1177  1B78  3478               	retlw	120
  1178  1B79  3448               	retlw	72
  1179  1B7A  3448               	retlw	72
  1180  1B7B  3440               	retlw	64
  1181  1B7C  3442               	retlw	66
  1182  1B7D  3442               	retlw	66
  1183  1B7E  34FC               	retlw	252
  1184  1B7F  3400               	retlw	0
  1185  1B80  3400               	retlw	0
  1186  1B81  3400               	retlw	0
  1187  1B82  3400               	retlw	0
  1188  1B83  3400               	retlw	0
  1189  1B84  34FC               	retlw	252
  1190  1B85  3442               	retlw	66
  1191  1B86  3448               	retlw	72
  1192  1B87  3448               	retlw	72
  1193  1B88  3478               	retlw	120
  1194  1B89  3448               	retlw	72
  1195  1B8A  3448               	retlw	72
  1196  1B8B  3440               	retlw	64
  1197  1B8C  3440               	retlw	64
  1198  1B8D  3440               	retlw	64
  1199  1B8E  34E0               	retlw	224
  1200  1B8F  3400               	retlw	0
  1201  1B90  3400               	retlw	0
  1202  1B91  3400               	retlw	0
  1203  1B92  3400               	retlw	0
  1204  1B93  3400               	retlw	0
  1205  1B94  343C               	retlw	60
  1206  1B95  3444               	retlw	68
  1207  1B96  3444               	retlw	68
  1208  1B97  3480               	retlw	128
  1209  1B98  3480               	retlw	128
  1210  1B99  3480               	retlw	128
  1211  1B9A  348E               	retlw	142
  1212  1B9B  3484               	retlw	132
  1213  1B9C  3444               	retlw	68
  1214  1B9D  3444               	retlw	68
  1215  1B9E  3438               	retlw	56
  1216  1B9F  3400               	retlw	0
  1217  1BA0  3400               	retlw	0
  1218  1BA1  3400               	retlw	0
  1219  1BA2  3400               	retlw	0
  1220  1BA3  3400               	retlw	0
  1221  1BA4  34E7               	retlw	231
  1222  1BA5  3442               	retlw	66
  1223  1BA6  3442               	retlw	66
  1224  1BA7  3442               	retlw	66
  1225  1BA8  3442               	retlw	66
  1226  1BA9  347E               	retlw	126
  1227  1BAA  3442               	retlw	66
  1228  1BAB  3442               	retlw	66
  1229  1BAC  3442               	retlw	66
  1230  1BAD  3442               	retlw	66
  1231  1BAE  34E7               	retlw	231
  1232  1BAF  3400               	retlw	0
  1233  1BB0  3400               	retlw	0
  1234  1BB1  3400               	retlw	0
  1235  1BB2  3400               	retlw	0
  1236  1BB3  3400               	retlw	0
  1237  1BB4  347C               	retlw	124
  1238  1BB5  3410               	retlw	16
  1239  1BB6  3410               	retlw	16
  1240  1BB7  3410               	retlw	16
  1241  1BB8  3410               	retlw	16
  1242  1BB9  3410               	retlw	16
  1243  1BBA  3410               	retlw	16
  1244  1BBB  3410               	retlw	16
  1245  1BBC  3410               	retlw	16
  1246  1BBD  3410               	retlw	16
  1247  1BBE  347C               	retlw	124
  1248  1BBF  3400               	retlw	0
  1249  1BC0  3400               	retlw	0
  1250  1BC1  3400               	retlw	0
  1251  1BC2  3400               	retlw	0
  1252  1BC3  3400               	retlw	0
  1253  1BC4  343E               	retlw	62
  1254  1BC5  3408               	retlw	8
  1255  1BC6  3408               	retlw	8
  1256  1BC7  3408               	retlw	8
  1257  1BC8  3408               	retlw	8
  1258  1BC9  3408               	retlw	8
  1259  1BCA  3408               	retlw	8
  1260  1BCB  3408               	retlw	8
  1261  1BCC  3408               	retlw	8
  1262  1BCD  3408               	retlw	8
  1263  1BCE  3408               	retlw	8
  1264  1BCF  3488               	retlw	136
  1265  1BD0  34F0               	retlw	240
  1266  1BD1  3400               	retlw	0
  1267  1BD2  3400               	retlw	0
  1268  1BD3  3400               	retlw	0
  1269  1BD4  34EE               	retlw	238
  1270  1BD5  3444               	retlw	68
  1271  1BD6  3448               	retlw	72
  1272  1BD7  3450               	retlw	80
  1273  1BD8  3470               	retlw	112
  1274  1BD9  3450               	retlw	80
  1275  1BDA  3448               	retlw	72
  1276  1BDB  3448               	retlw	72
  1277  1BDC  3444               	retlw	68
  1278  1BDD  3444               	retlw	68
  1279  1BDE  34EE               	retlw	238
  1280  1BDF  3400               	retlw	0
  1281  1BE0  3400               	retlw	0
  1282  1BE1  3400               	retlw	0
  1283  1BE2  3400               	retlw	0
  1284  1BE3  3400               	retlw	0
  1285  1BE4  34E0               	retlw	224
  1286  1BE5  3440               	retlw	64
  1287  1BE6  3440               	retlw	64
  1288  1BE7  3440               	retlw	64
  1289  1BE8  3440               	retlw	64
  1290  1BE9  3440               	retlw	64
  1291  1BEA  3440               	retlw	64
  1292  1BEB  3440               	retlw	64
  1293  1BEC  3440               	retlw	64
  1294  1BED  3442               	retlw	66
  1295  1BEE  34FE               	retlw	254
  1296  1BEF  3400               	retlw	0
  1297  1BF0  3400               	retlw	0
  1298  1BF1  3400               	retlw	0
  1299  1BF2  3400               	retlw	0
  1300  1BF3  3400               	retlw	0
  1301  1BF4  34EE               	retlw	238
  1302  1BF5  346C               	retlw	108
  1303  1BF6  346C               	retlw	108
  1304  1BF7  346C               	retlw	108
  1305  1BF8  346C               	retlw	108
  1306  1BF9  3454               	retlw	84
  1307  1BFA  3454               	retlw	84
  1308  1BFB  3454               	retlw	84
  1309  1BFC  3454               	retlw	84
  1310  1BFD  3454               	retlw	84
  1311  1BFE  34D6               	retlw	214
  1312  1BFF  3400               	retlw	0
  1313  1C00  3400               	retlw	0
  1314  1C01  3400               	retlw	0
  1315  1C02  3400               	retlw	0
  1316  1C03  3400               	retlw	0
  1317  1C04  34C7               	retlw	199
  1318  1C05  3462               	retlw	98
  1319  1C06  3462               	retlw	98
  1320  1C07  3452               	retlw	82
  1321  1C08  3452               	retlw	82
  1322  1C09  344A               	retlw	74
  1323  1C0A  344A               	retlw	74
  1324  1C0B  344A               	retlw	74
  1325  1C0C  3446               	retlw	70
  1326  1C0D  3446               	retlw	70
  1327  1C0E  34E2               	retlw	226
  1328  1C0F  3400               	retlw	0
  1329  1C10  3400               	retlw	0
  1330  1C11  3400               	retlw	0
  1331  1C12  3400               	retlw	0
  1332  1C13  3400               	retlw	0
  1333  1C14  3438               	retlw	56
  1334  1C15  3444               	retlw	68
  1335  1C16  3482               	retlw	130
  1336  1C17  3482               	retlw	130
  1337  1C18  3482               	retlw	130
  1338  1C19  3482               	retlw	130
  1339  1C1A  3482               	retlw	130
  1340  1C1B  3482               	retlw	130
  1341  1C1C  3482               	retlw	130
  1342  1C1D  3444               	retlw	68
  1343  1C1E  3438               	retlw	56
  1344  1C1F  3400               	retlw	0
  1345  1C20  3400               	retlw	0
  1346  1C21  3400               	retlw	0
  1347  1C22  3400               	retlw	0
  1348  1C23  3400               	retlw	0
  1349  1C24  34FC               	retlw	252
  1350  1C25  3442               	retlw	66
  1351  1C26  3442               	retlw	66
  1352  1C27  3442               	retlw	66
  1353  1C28  3442               	retlw	66
  1354  1C29  347C               	retlw	124
  1355  1C2A  3440               	retlw	64
  1356  1C2B  3440               	retlw	64
  1357  1C2C  3440               	retlw	64
  1358  1C2D  3440               	retlw	64
  1359  1C2E  34E0               	retlw	224
  1360  1C2F  3400               	retlw	0
  1361  1C30  3400               	retlw	0
  1362  1C31  3400               	retlw	0
  1363  1C32  3400               	retlw	0
  1364  1C33  3400               	retlw	0
  1365  1C34  3438               	retlw	56
  1366  1C35  3444               	retlw	68
  1367  1C36  3482               	retlw	130
  1368  1C37  3482               	retlw	130
  1369  1C38  3482               	retlw	130
  1370  1C39  3482               	retlw	130
  1371  1C3A  3482               	retlw	130
  1372  1C3B  34B2               	retlw	178
  1373  1C3C  34CA               	retlw	202
  1374  1C3D  344C               	retlw	76
  1375  1C3E  3438               	retlw	56
  1376  1C3F  3406               	retlw	6
  1377  1C40  3400               	retlw	0
  1378  1C41  3400               	retlw	0
  1379  1C42  3400               	retlw	0
  1380  1C43  3400               	retlw	0
  1381  1C44  34FC               	retlw	252
  1382  1C45  3442               	retlw	66
  1383  1C46  3442               	retlw	66
  1384  1C47  3442               	retlw	66
  1385  1C48  347C               	retlw	124
  1386  1C49  3448               	retlw	72
  1387  1C4A  3448               	retlw	72
  1388  1C4B  3444               	retlw	68
  1389  1C4C  3444               	retlw	68
  1390  1C4D  3442               	retlw	66
  1391  1C4E  34E3               	retlw	227
  1392  1C4F  3400               	retlw	0
  1393  1C50  3400               	retlw	0
  1394  1C51  3400               	retlw	0
  1395  1C52  3400               	retlw	0
  1396  1C53  3400               	retlw	0
  1397  1C54  343E               	retlw	62
  1398  1C55  3442               	retlw	66
  1399  1C56  3442               	retlw	66
  1400  1C57  3440               	retlw	64
  1401  1C58  3420               	retlw	32
  1402  1C59  3418               	retlw	24
  1403  1C5A  3404               	retlw	4
  1404  1C5B  3402               	retlw	2
  1405  1C5C  3442               	retlw	66
  1406  1C5D  3442               	retlw	66
  1407  1C5E  347C               	retlw	124
  1408  1C5F  3400               	retlw	0
  1409  1C60  3400               	retlw	0
  1410  1C61  3400               	retlw	0
  1411  1C62  3400               	retlw	0
  1412  1C63  3400               	retlw	0
  1413  1C64  34FE               	retlw	254
  1414  1C65  3492               	retlw	146
  1415  1C66  3410               	retlw	16
  1416  1C67  3410               	retlw	16
  1417  1C68  3410               	retlw	16
  1418  1C69  3410               	retlw	16
  1419  1C6A  3410               	retlw	16
  1420  1C6B  3410               	retlw	16
  1421  1C6C  3410               	retlw	16
  1422  1C6D  3410               	retlw	16
  1423  1C6E  3438               	retlw	56
  1424  1C6F  3400               	retlw	0
  1425  1C70  3400               	retlw	0
  1426  1C71  3400               	retlw	0
  1427  1C72  3400               	retlw	0
  1428  1C73  3400               	retlw	0
  1429  1C74  34E7               	retlw	231
  1430  1C75  3442               	retlw	66
  1431  1C76  3442               	retlw	66
  1432  1C77  3442               	retlw	66
  1433  1C78  3442               	retlw	66
  1434  1C79  3442               	retlw	66
  1435  1C7A  3442               	retlw	66
  1436  1C7B  3442               	retlw	66
  1437  1C7C  3442               	retlw	66
  1438  1C7D  3442               	retlw	66
  1439  1C7E  343C               	retlw	60
  1440  1C7F  3400               	retlw	0
  1441  1C80  3400               	retlw	0
  1442  1C81  3400               	retlw	0
  1443  1C82  3400               	retlw	0
  1444  1C83  3400               	retlw	0
  1445  1C84  34E7               	retlw	231
  1446  1C85  3442               	retlw	66
  1447  1C86  3442               	retlw	66
  1448  1C87  3444               	retlw	68
  1449  1C88  3424               	retlw	36
  1450  1C89  3424               	retlw	36
  1451  1C8A  3428               	retlw	40
  1452  1C8B  3428               	retlw	40
  1453  1C8C  3418               	retlw	24
  1454  1C8D  3410               	retlw	16
  1455  1C8E  3410               	retlw	16
  1456  1C8F  3400               	retlw	0
  1457  1C90  3400               	retlw	0
  1458  1C91  3400               	retlw	0
  1459  1C92  3400               	retlw	0
  1460  1C93  3400               	retlw	0
  1461  1C94  34D6               	retlw	214
  1462  1C95  3492               	retlw	146
  1463  1C96  3492               	retlw	146
  1464  1C97  3492               	retlw	146
  1465  1C98  3492               	retlw	146
  1466  1C99  34AA               	retlw	170
  1467  1C9A  34AA               	retlw	170
  1468  1C9B  346C               	retlw	108
  1469  1C9C  3444               	retlw	68
  1470  1C9D  3444               	retlw	68
  1471  1C9E  3444               	retlw	68
  1472  1C9F  3400               	retlw	0
  1473  1CA0  3400               	retlw	0
  1474  1CA1  3400               	retlw	0
  1475  1CA2  3400               	retlw	0
  1476  1CA3  3400               	retlw	0
  1477  1CA4  34E7               	retlw	231
  1478  1CA5  3442               	retlw	66
  1479  1CA6  3424               	retlw	36
  1480  1CA7  3424               	retlw	36
  1481  1CA8  3418               	retlw	24
  1482  1CA9  3418               	retlw	24
  1483  1CAA  3418               	retlw	24
  1484  1CAB  3424               	retlw	36
  1485  1CAC  3424               	retlw	36
  1486  1CAD  3442               	retlw	66
  1487  1CAE  34E7               	retlw	231
  1488  1CAF  3400               	retlw	0
  1489  1CB0  3400               	retlw	0
  1490  1CB1  3400               	retlw	0
  1491  1CB2  3400               	retlw	0
  1492  1CB3  3400               	retlw	0
  1493  1CB4  34EE               	retlw	238
  1494  1CB5  3444               	retlw	68
  1495  1CB6  3444               	retlw	68
  1496  1CB7  3428               	retlw	40
  1497  1CB8  3428               	retlw	40
  1498  1CB9  3410               	retlw	16
  1499  1CBA  3410               	retlw	16
  1500  1CBB  3410               	retlw	16
  1501  1CBC  3410               	retlw	16
  1502  1CBD  3410               	retlw	16
  1503  1CBE  3438               	retlw	56
  1504  1CBF  3400               	retlw	0
  1505  1CC0  3400               	retlw	0
  1506  1CC1  3400               	retlw	0
  1507  1CC2  3400               	retlw	0
  1508  1CC3  3400               	retlw	0
  1509  1CC4  347E               	retlw	126
  1510  1CC5  3484               	retlw	132
  1511  1CC6  3404               	retlw	4
  1512  1CC7  3408               	retlw	8
  1513  1CC8  3408               	retlw	8
  1514  1CC9  3410               	retlw	16
  1515  1CCA  3420               	retlw	32
  1516  1CCB  3420               	retlw	32
  1517  1CCC  3442               	retlw	66
  1518  1CCD  3442               	retlw	66
  1519  1CCE  34FC               	retlw	252
  1520  1CCF  3400               	retlw	0
  1521  1CD0  3400               	retlw	0
  1522  1CD1  3400               	retlw	0
  1523  1CD2  341E               	retlw	30
  1524  1CD3  3410               	retlw	16
  1525  1CD4  3410               	retlw	16
  1526  1CD5  3410               	retlw	16
  1527  1CD6  3410               	retlw	16
  1528  1CD7  3410               	retlw	16
  1529  1CD8  3410               	retlw	16
  1530  1CD9  3410               	retlw	16
  1531  1CDA  3410               	retlw	16
  1532  1CDB  3410               	retlw	16
  1533  1CDC  3410               	retlw	16
  1534  1CDD  3410               	retlw	16
  1535  1CDE  3410               	retlw	16
  1536  1CDF  341E               	retlw	30
  1537  1CE0  3400               	retlw	0
  1538  1CE1  3400               	retlw	0
  1539  1CE2  3400               	retlw	0
  1540  1CE3  3440               	retlw	64
  1541  1CE4  3440               	retlw	64
  1542  1CE5  3420               	retlw	32
  1543  1CE6  3420               	retlw	32
  1544  1CE7  3410               	retlw	16
  1545  1CE8  3410               	retlw	16
  1546  1CE9  3410               	retlw	16
  1547  1CEA  3408               	retlw	8
  1548  1CEB  3408               	retlw	8
  1549  1CEC  3404               	retlw	4
  1550  1CED  3404               	retlw	4
  1551  1CEE  3404               	retlw	4
  1552  1CEF  3402               	retlw	2
  1553  1CF0  3402               	retlw	2
  1554  1CF1  3400               	retlw	0
  1555  1CF2  3478               	retlw	120
  1556  1CF3  3408               	retlw	8
  1557  1CF4  3408               	retlw	8
  1558  1CF5  3408               	retlw	8
  1559  1CF6  3408               	retlw	8
  1560  1CF7  3408               	retlw	8
  1561  1CF8  3408               	retlw	8
  1562  1CF9  3408               	retlw	8
  1563  1CFA  3408               	retlw	8
  1564  1CFB  3408               	retlw	8
  1565  1CFC  3408               	retlw	8
  1566  1CFD  3408               	retlw	8
  1567  1CFE  3408               	retlw	8
  1568  1CFF  3478               	retlw	120
  1569  1D00  3400               	retlw	0
  1570  1D01  3400               	retlw	0
  1571  1D02  341C               	retlw	28
  1572  1D03  3422               	retlw	34
  1573  1D04  3400               	retlw	0
  1574  1D05  3400               	retlw	0
  1575  1D06  3400               	retlw	0
  1576  1D07  3400               	retlw	0
  1577  1D08  3400               	retlw	0
  1578  1D09  3400               	retlw	0
  1579  1D0A  3400               	retlw	0
  1580  1D0B  3400               	retlw	0
  1581  1D0C  3400               	retlw	0
  1582  1D0D  3400               	retlw	0
  1583  1D0E  3400               	retlw	0
  1584  1D0F  3400               	retlw	0
  1585  1D10  3400               	retlw	0
  1586  1D11  3400               	retlw	0
  1587  1D12  3400               	retlw	0
  1588  1D13  3400               	retlw	0
  1589  1D14  3400               	retlw	0
  1590  1D15  3400               	retlw	0
  1591  1D16  3400               	retlw	0
  1592  1D17  3400               	retlw	0
  1593  1D18  3400               	retlw	0
  1594  1D19  3400               	retlw	0
  1595  1D1A  3400               	retlw	0
  1596  1D1B  3400               	retlw	0
  1597  1D1C  3400               	retlw	0
  1598  1D1D  3400               	retlw	0
  1599  1D1E  3400               	retlw	0
  1600  1D1F  3400               	retlw	0
  1601  1D20  34FF               	retlw	255
  1602  1D21  3400               	retlw	0
  1603  1D22  3460               	retlw	96
  1604  1D23  3410               	retlw	16
  1605  1D24  3400               	retlw	0
  1606  1D25  3400               	retlw	0
  1607  1D26  3400               	retlw	0
  1608  1D27  3400               	retlw	0
  1609  1D28  3400               	retlw	0
  1610  1D29  3400               	retlw	0
  1611  1D2A  3400               	retlw	0
  1612  1D2B  3400               	retlw	0
  1613  1D2C  3400               	retlw	0
  1614  1D2D  3400               	retlw	0
  1615  1D2E  3400               	retlw	0
  1616  1D2F  3400               	retlw	0
  1617  1D30  3400               	retlw	0
  1618  1D31  3400               	retlw	0
  1619  1D32  3400               	retlw	0
  1620  1D33  3400               	retlw	0
  1621  1D34  3400               	retlw	0
  1622  1D35  3400               	retlw	0
  1623  1D36  3400               	retlw	0
  1624  1D37  3400               	retlw	0
  1625  1D38  343C               	retlw	60
  1626  1D39  3442               	retlw	66
  1627  1D3A  341E               	retlw	30
  1628  1D3B  3422               	retlw	34
  1629  1D3C  3442               	retlw	66
  1630  1D3D  3442               	retlw	66
  1631  1D3E  343F               	retlw	63
  1632  1D3F  3400               	retlw	0
  1633  1D40  3400               	retlw	0
  1634  1D41  3400               	retlw	0
  1635  1D42  3400               	retlw	0
  1636  1D43  3400               	retlw	0
  1637  1D44  34C0               	retlw	192
  1638  1D45  3440               	retlw	64
  1639  1D46  3440               	retlw	64
  1640  1D47  3440               	retlw	64
  1641  1D48  3458               	retlw	88
  1642  1D49  3464               	retlw	100
  1643  1D4A  3442               	retlw	66
  1644  1D4B  3442               	retlw	66
  1645  1D4C  3442               	retlw	66
  1646  1D4D  3464               	retlw	100
  1647  1D4E  3458               	retlw	88
  1648  1D4F  3400               	retlw	0
  1649  1D50  3400               	retlw	0
  1650  1D51  3400               	retlw	0
  1651  1D52  3400               	retlw	0
  1652  1D53  3400               	retlw	0
  1653  1D54  3400               	retlw	0
  1654  1D55  3400               	retlw	0
  1655  1D56  3400               	retlw	0
  1656  1D57  3400               	retlw	0
  1657  1D58  341C               	retlw	28
  1658  1D59  3422               	retlw	34
  1659  1D5A  3440               	retlw	64
  1660  1D5B  3440               	retlw	64
  1661  1D5C  3440               	retlw	64
  1662  1D5D  3422               	retlw	34
  1663  1D5E  341C               	retlw	28
  1664  1D5F  3400               	retlw	0
  1665  1D60  3400               	retlw	0
  1666  1D61  3400               	retlw	0
  1667  1D62  3400               	retlw	0
  1668  1D63  3400               	retlw	0
  1669  1D64  3406               	retlw	6
  1670  1D65  3402               	retlw	2
  1671  1D66  3402               	retlw	2
  1672  1D67  3402               	retlw	2
  1673  1D68  341E               	retlw	30
  1674  1D69  3422               	retlw	34
  1675  1D6A  3442               	retlw	66
  1676  1D6B  3442               	retlw	66
  1677  1D6C  3442               	retlw	66
  1678  1D6D  3426               	retlw	38
  1679  1D6E  341B               	retlw	27
  1680  1D6F  3400               	retlw	0
  1681  1D70  3400               	retlw	0
  1682  1D71  3400               	retlw	0
  1683  1D72  3400               	retlw	0
  1684  1D73  3400               	retlw	0
  1685  1D74  3400               	retlw	0
  1686  1D75  3400               	retlw	0
  1687  1D76  3400               	retlw	0
  1688  1D77  3400               	retlw	0
  1689  1D78  343C               	retlw	60
  1690  1D79  3442               	retlw	66
  1691  1D7A  347E               	retlw	126
  1692  1D7B  3440               	retlw	64
  1693  1D7C  3440               	retlw	64
  1694  1D7D  3442               	retlw	66
  1695  1D7E  343C               	retlw	60
  1696  1D7F  3400               	retlw	0
  1697  1D80  3400               	retlw	0
  1698  1D81  3400               	retlw	0
  1699  1D82  3400               	retlw	0
  1700  1D83  3400               	retlw	0
  1701  1D84  340F               	retlw	15
  1702  1D85  3411               	retlw	17
  1703  1D86  3410               	retlw	16
  1704  1D87  3410               	retlw	16
  1705  1D88  347E               	retlw	126
  1706  1D89  3410               	retlw	16
  1707  1D8A  3410               	retlw	16
  1708  1D8B  3410               	retlw	16
  1709  1D8C  3410               	retlw	16
  1710  1D8D  3410               	retlw	16
  1711  1D8E  347C               	retlw	124
  1712  1D8F  3400               	retlw	0
  1713  1D90  3400               	retlw	0
  1714  1D91  3400               	retlw	0
  1715  1D92  3400               	retlw	0
  1716  1D93  3400               	retlw	0
  1717  1D94  3400               	retlw	0
  1718  1D95  3400               	retlw	0
  1719  1D96  3400               	retlw	0
  1720  1D97  3400               	retlw	0
  1721  1D98  343E               	retlw	62
  1722  1D99  3444               	retlw	68
  1723  1D9A  3444               	retlw	68
  1724  1D9B  3438               	retlw	56
  1725  1D9C  3440               	retlw	64
  1726  1D9D  343C               	retlw	60
  1727  1D9E  3442               	retlw	66
  1728  1D9F  3442               	retlw	66
  1729  1DA0  343C               	retlw	60
  1730  1DA1  3400               	retlw	0
  1731  1DA2  3400               	retlw	0
  1732  1DA3  3400               	retlw	0
  1733  1DA4  34C0               	retlw	192
  1734  1DA5  3440               	retlw	64
  1735  1DA6  3440               	retlw	64
  1736  1DA7  3440               	retlw	64
  1737  1DA8  345C               	retlw	92
  1738  1DA9  3462               	retlw	98
  1739  1DAA  3442               	retlw	66
  1740  1DAB  3442               	retlw	66
  1741  1DAC  3442               	retlw	66
  1742  1DAD  3442               	retlw	66
  1743  1DAE  34E7               	retlw	231
  1744  1DAF  3400               	retlw	0
  1745  1DB0  3400               	retlw	0
  1746  1DB1  3400               	retlw	0
  1747  1DB2  3400               	retlw	0
  1748  1DB3  3400               	retlw	0
  1749  1DB4  3430               	retlw	48
  1750  1DB5  3430               	retlw	48
  1751  1DB6  3400               	retlw	0
  1752  1DB7  3400               	retlw	0
  1753  1DB8  3470               	retlw	112
  1754  1DB9  3410               	retlw	16
  1755  1DBA  3410               	retlw	16
  1756  1DBB  3410               	retlw	16
  1757  1DBC  3410               	retlw	16
  1758  1DBD  3410               	retlw	16
  1759  1DBE  347C               	retlw	124
  1760  1DBF  3400               	retlw	0
  1761  1DC0  3400               	retlw	0
  1762  1DC1  3400               	retlw	0
  1763  1DC2  3400               	retlw	0
  1764  1DC3  3400               	retlw	0
  1765  1DC4  340C               	retlw	12
  1766  1DC5  340C               	retlw	12
  1767  1DC6  3400               	retlw	0
  1768  1DC7  3400               	retlw	0
  1769  1DC8  341C               	retlw	28
  1770  1DC9  3404               	retlw	4
  1771  1DCA  3404               	retlw	4
  1772  1DCB  3404               	retlw	4
  1773  1DCC  3404               	retlw	4
  1774  1DCD  3404               	retlw	4
  1775  1DCE  3404               	retlw	4
  1776  1DCF  3444               	retlw	68
  1777  1DD0  3478               	retlw	120
  1778  1DD1  3400               	retlw	0
  1779  1DD2  3400               	retlw	0
  1780  1DD3  3400               	retlw	0
  1781  1DD4  34C0               	retlw	192
  1782  1DD5  3440               	retlw	64
  1783  1DD6  3440               	retlw	64
  1784  1DD7  3440               	retlw	64
  1785  1DD8  344E               	retlw	78
  1786  1DD9  3448               	retlw	72
  1787  1DDA  3450               	retlw	80
  1788  1DDB  3468               	retlw	104
  1789  1DDC  3448               	retlw	72
  1790  1DDD  3444               	retlw	68
  1791  1DDE  34EE               	retlw	238
  1792  1DDF  3400               	retlw	0
  1793  1DE0  3400               	retlw	0
  1794  1DE1  3400               	retlw	0
  1795  1DE2  3400               	retlw	0
  1796  1DE3  3400               	retlw	0
  1797  1DE4  3470               	retlw	112
  1798  1DE5  3410               	retlw	16
  1799  1DE6  3410               	retlw	16
  1800  1DE7  3410               	retlw	16
  1801  1DE8  3410               	retlw	16
  1802  1DE9  3410               	retlw	16
  1803  1DEA  3410               	retlw	16
  1804  1DEB  3410               	retlw	16
  1805  1DEC  3410               	retlw	16
  1806  1DED  3410               	retlw	16
  1807  1DEE  347C               	retlw	124
  1808  1DEF  3400               	retlw	0
  1809  1DF0  3400               	retlw	0
  1810  1DF1  3400               	retlw	0
  1811  1DF2  3400               	retlw	0
  1812  1DF3  3400               	retlw	0
  1813  1DF4  3400               	retlw	0
  1814  1DF5  3400               	retlw	0
  1815  1DF6  3400               	retlw	0
  1816  1DF7  3400               	retlw	0
  1817  1DF8  34FE               	retlw	254
  1818  1DF9  3449               	retlw	73
  1819  1DFA  3449               	retlw	73
  1820  1DFB  3449               	retlw	73
  1821  1DFC  3449               	retlw	73
  1822  1DFD  3449               	retlw	73
  1823  1DFE  34ED               	retlw	237
  1824  1DFF  3400               	retlw	0
  1825  1E00  3400               	retlw	0
  1826  1E01  3400               	retlw	0
  1827  1E02  3400               	retlw	0
  1828  1E03  3400               	retlw	0
  1829  1E04  3400               	retlw	0
  1830  1E05  3400               	retlw	0
  1831  1E06  3400               	retlw	0
  1832  1E07  3400               	retlw	0
  1833  1E08  34DC               	retlw	220
  1834  1E09  3462               	retlw	98
  1835  1E0A  3442               	retlw	66
  1836  1E0B  3442               	retlw	66
  1837  1E0C  3442               	retlw	66
  1838  1E0D  3442               	retlw	66
  1839  1E0E  34E7               	retlw	231
  1840  1E0F  3400               	retlw	0
  1841  1E10  3400               	retlw	0
  1842  1E11  3400               	retlw	0
  1843  1E12  3400               	retlw	0
  1844  1E13  3400               	retlw	0
  1845  1E14  3400               	retlw	0
  1846  1E15  3400               	retlw	0
  1847  1E16  3400               	retlw	0
  1848  1E17  3400               	retlw	0
  1849  1E18  343C               	retlw	60
  1850  1E19  3442               	retlw	66
  1851  1E1A  3442               	retlw	66
  1852  1E1B  3442               	retlw	66
  1853  1E1C  3442               	retlw	66
  1854  1E1D  3442               	retlw	66
  1855  1E1E  343C               	retlw	60
  1856  1E1F  3400               	retlw	0
  1857  1E20  3400               	retlw	0
  1858  1E21  3400               	retlw	0
  1859  1E22  3400               	retlw	0
  1860  1E23  3400               	retlw	0
  1861  1E24  3400               	retlw	0
  1862  1E25  3400               	retlw	0
  1863  1E26  3400               	retlw	0
  1864  1E27  3400               	retlw	0
  1865  1E28  34D8               	retlw	216
  1866  1E29  3464               	retlw	100
  1867  1E2A  3442               	retlw	66
  1868  1E2B  3442               	retlw	66
  1869  1E2C  3442               	retlw	66
  1870  1E2D  3444               	retlw	68
  1871  1E2E  3478               	retlw	120
  1872  1E2F  3440               	retlw	64
  1873  1E30  34E0               	retlw	224
  1874  1E31  3400               	retlw	0
  1875  1E32  3400               	retlw	0
  1876  1E33  3400               	retlw	0
  1877  1E34  3400               	retlw	0
  1878  1E35  3400               	retlw	0
  1879  1E36  3400               	retlw	0
  1880  1E37  3400               	retlw	0
  1881  1E38  341E               	retlw	30
  1882  1E39  3422               	retlw	34
  1883  1E3A  3442               	retlw	66
  1884  1E3B  3442               	retlw	66
  1885  1E3C  3442               	retlw	66
  1886  1E3D  3422               	retlw	34
  1887  1E3E  341E               	retlw	30
  1888  1E3F  3402               	retlw	2
  1889  1E40  3407               	retlw	7
  1890  1E41  3400               	retlw	0
  1891  1E42  3400               	retlw	0
  1892  1E43  3400               	retlw	0
  1893  1E44  3400               	retlw	0
  1894  1E45  3400               	retlw	0
  1895  1E46  3400               	retlw	0
  1896  1E47  3400               	retlw	0
  1897  1E48  34EE               	retlw	238
  1898  1E49  3432               	retlw	50
  1899  1E4A  3420               	retlw	32
  1900  1E4B  3420               	retlw	32
  1901  1E4C  3420               	retlw	32
  1902  1E4D  3420               	retlw	32
  1903  1E4E  34F8               	retlw	248
  1904  1E4F  3400               	retlw	0
  1905  1E50  3400               	retlw	0
  1906  1E51  3400               	retlw	0
  1907  1E52  3400               	retlw	0
  1908  1E53  3400               	retlw	0
  1909  1E54  3400               	retlw	0
  1910  1E55  3400               	retlw	0
  1911  1E56  3400               	retlw	0
  1912  1E57  3400               	retlw	0
  1913  1E58  343E               	retlw	62
  1914  1E59  3442               	retlw	66
  1915  1E5A  3440               	retlw	64
  1916  1E5B  343C               	retlw	60
  1917  1E5C  3402               	retlw	2
  1918  1E5D  3442               	retlw	66
  1919  1E5E  347C               	retlw	124
  1920  1E5F  3400               	retlw	0
  1921  1E60  3400               	retlw	0
  1922  1E61  3400               	retlw	0
  1923  1E62  3400               	retlw	0
  1924  1E63  3400               	retlw	0
  1925  1E64  3400               	retlw	0
  1926  1E65  3400               	retlw	0
  1927  1E66  3410               	retlw	16
  1928  1E67  3410               	retlw	16
  1929  1E68  347C               	retlw	124
  1930  1E69  3410               	retlw	16
  1931  1E6A  3410               	retlw	16
  1932  1E6B  3410               	retlw	16
  1933  1E6C  3410               	retlw	16
  1934  1E6D  3410               	retlw	16
  1935  1E6E  340C               	retlw	12
  1936  1E6F  3400               	retlw	0
  1937  1E70  3400               	retlw	0
  1938  1E71  3400               	retlw	0
  1939  1E72  3400               	retlw	0
  1940  1E73  3400               	retlw	0
  1941  1E74  3400               	retlw	0
  1942  1E75  3400               	retlw	0
  1943  1E76  3400               	retlw	0
  1944  1E77  3400               	retlw	0
  1945  1E78  34C6               	retlw	198
  1946  1E79  3442               	retlw	66
  1947  1E7A  3442               	retlw	66
  1948  1E7B  3442               	retlw	66
  1949  1E7C  3442               	retlw	66
  1950  1E7D  3446               	retlw	70
  1951  1E7E  343B               	retlw	59
  1952  1E7F  3400               	retlw	0
  1953  1E80  3400               	retlw	0
  1954  1E81  3400               	retlw	0
  1955  1E82  3400               	retlw	0
  1956  1E83  3400               	retlw	0
  1957  1E84  3400               	retlw	0
  1958  1E85  3400               	retlw	0
  1959  1E86  3400               	retlw	0
  1960  1E87  3400               	retlw	0
  1961  1E88  34E7               	retlw	231
  1962  1E89  3442               	retlw	66
  1963  1E8A  3424               	retlw	36
  1964  1E8B  3424               	retlw	36
  1965  1E8C  3428               	retlw	40
  1966  1E8D  3410               	retlw	16
  1967  1E8E  3410               	retlw	16
  1968  1E8F  3400               	retlw	0
  1969  1E90  3400               	retlw	0
  1970  1E91  3400               	retlw	0
  1971  1E92  3400               	retlw	0
  1972  1E93  3400               	retlw	0
  1973  1E94  3400               	retlw	0
  1974  1E95  3400               	retlw	0
  1975  1E96  3400               	retlw	0
  1976  1E97  3400               	retlw	0
  1977  1E98  34D7               	retlw	215
  1978  1E99  3492               	retlw	146
  1979  1E9A  3492               	retlw	146
  1980  1E9B  34AA               	retlw	170
  1981  1E9C  34AA               	retlw	170
  1982  1E9D  3444               	retlw	68
  1983  1E9E  3444               	retlw	68
  1984  1E9F  3400               	retlw	0
  1985  1EA0  3400               	retlw	0
  1986  1EA1  3400               	retlw	0
  1987  1EA2  3400               	retlw	0
  1988  1EA3  3400               	retlw	0
  1989  1EA4  3400               	retlw	0
  1990  1EA5  3400               	retlw	0
  1991  1EA6  3400               	retlw	0
  1992  1EA7  3400               	retlw	0
  1993  1EA8  346E               	retlw	110
  1994  1EA9  3424               	retlw	36
  1995  1EAA  3418               	retlw	24
  1996  1EAB  3418               	retlw	24
  1997  1EAC  3418               	retlw	24
  1998  1EAD  3424               	retlw	36
  1999  1EAE  3476               	retlw	118
  2000  1EAF  3400               	retlw	0
  2001  1EB0  3400               	retlw	0
  2002  1EB1  3400               	retlw	0
  2003  1EB2  3400               	retlw	0
  2004  1EB3  3400               	retlw	0
  2005  1EB4  3400               	retlw	0
  2006  1EB5  3400               	retlw	0
  2007  1EB6  3400               	retlw	0
  2008  1EB7  3400               	retlw	0
  2009  1EB8  34E7               	retlw	231
  2010  1EB9  3442               	retlw	66
  2011  1EBA  3424               	retlw	36
  2012  1EBB  3424               	retlw	36
  2013  1EBC  3428               	retlw	40
  2014  1EBD  3418               	retlw	24
  2015  1EBE  3410               	retlw	16
  2016  1EBF  3410               	retlw	16
  2017  1EC0  34E0               	retlw	224
  2018  1EC1  3400               	retlw	0
  2019  1EC2  3400               	retlw	0
  2020  1EC3  3400               	retlw	0
  2021  1EC4  3400               	retlw	0
  2022  1EC5  3400               	retlw	0
  2023  1EC6  3400               	retlw	0
  2024  1EC7  3400               	retlw	0
  2025  1EC8  347E               	retlw	126
  2026  1EC9  3444               	retlw	68
  2027  1ECA  3408               	retlw	8
  2028  1ECB  3410               	retlw	16
  2029  1ECC  3410               	retlw	16
  2030  1ECD  3422               	retlw	34
  2031  1ECE  347E               	retlw	126
  2032  1ECF  3400               	retlw	0
  2033  1ED0  3400               	retlw	0
  2034  1ED1  3400               	retlw	0
  2035  1ED2  3403               	retlw	3
  2036  1ED3  3404               	retlw	4
  2037  1ED4  3404               	retlw	4
  2038  1ED5  3404               	retlw	4
  2039  1ED6  3404               	retlw	4
  2040  1ED7  3404               	retlw	4
  2041  1ED8  3408               	retlw	8
  2042  1ED9  3404               	retlw	4
  2043  1EDA  3404               	retlw	4
  2044  1EDB  3404               	retlw	4
  2045  1EDC  3404               	retlw	4
  2046  1EDD  3404               	retlw	4
  2047  1EDE  3404               	retlw	4
  2048  1EDF  3403               	retlw	3
  2049  1EE0  3400               	retlw	0
  2050  1EE1  3400               	retlw	0
  2051  1EE2  3408               	retlw	8
  2052  1EE3  3408               	retlw	8
  2053  1EE4  3408               	retlw	8
  2054  1EE5  3408               	retlw	8
  2055  1EE6  3408               	retlw	8
  2056  1EE7  3408               	retlw	8
  2057  1EE8  3408               	retlw	8
  2058  1EE9  3408               	retlw	8
  2059  1EEA  3408               	retlw	8
  2060  1EEB  3408               	retlw	8
  2061  1EEC  3408               	retlw	8
  2062  1EED  3408               	retlw	8
  2063  1EEE  3408               	retlw	8
  2064  1EEF  3408               	retlw	8
  2065  1EF0  3408               	retlw	8
  2066  1EF1  3400               	retlw	0
  2067  1EF2  3460               	retlw	96
  2068  1EF3  3410               	retlw	16
  2069  1EF4  3410               	retlw	16
  2070  1EF5  3410               	retlw	16
  2071  1EF6  3410               	retlw	16
  2072  1EF7  3410               	retlw	16
  2073  1EF8  3408               	retlw	8
  2074  1EF9  3410               	retlw	16
  2075  1EFA  3410               	retlw	16
  2076  1EFB  3410               	retlw	16
  2077  1EFC  3410               	retlw	16
  2078  1EFD  3410               	retlw	16
  2079  1EFE  3410               	retlw	16
  2080  1EFF  3460               	retlw	96
  2081  1F00  3400               	retlw	0
  2082  1F01  3400               	retlw	0
  2083  1F02  344C               	retlw	76
  2084  1F03  3443               	retlw	67
  2085  1F04  3400               	retlw	0
  2086  1F05  3400               	retlw	0
  2087  1F06  3400               	retlw	0
  2088  1F07  3400               	retlw	0
  2089  1F08  3400               	retlw	0
  2090  1F09  3400               	retlw	0
  2091  1F0A  3400               	retlw	0
  2092  1F0B  3400               	retlw	0
  2093  1F0C  3400               	retlw	0
  2094  1F0D  3400               	retlw	0
  2095  1F0E  3400               	retlw	0
  2096  1F0F  3400               	retlw	0
  2097  1F10  3400               	retlw	0
  2098  1F11  3400               	retlw	0
  2099  1F12  3400               	retlw	0
  2100  1F13  3400               	retlw	0
  2101  1F14  3400               	retlw	0
  2102  1F15  3400               	retlw	0
  2103  1F16  3400               	retlw	0
  2104  1F17  3400               	retlw	0
  2105  1F18  3400               	retlw	0
  2106  1F19  3400               	retlw	0
  2107  1F1A  3400               	retlw	0
  2108  1F1B  3400               	retlw	0
  2109  1F1C  3400               	retlw	0
  2110  1F1D  3400               	retlw	0
  2111  1F1E  3400               	retlw	0
  2112  1F1F  3400               	retlw	0
  2113  1F20  3400               	retlw	0
  2114  1F21  3400               	retlw	0
  2115  000B                     _INTCON	set	11
  2116  000C                     _PIR1	set	12
  2117  0005                     _PORTA	set	5
  2118  0006                     _PORTB	set	6
  2119  0013                     _SSPBUF	set	19
  2120  0014                     _SSPCON	set	20
  2121  0028                     _RA0	set	40
  2122  0029                     _RA1	set	41
  2123  002A                     _RA2	set	42
  2124  0063                     _SSPIF	set	99
  2125  0094                     _SSPSTAT	set	148
  2126  0085                     _TRISA	set	133
  2127  0086                     _TRISB	set	134
  2128  0087                     _TRISC	set	135
  2129  1F22                     STR_1:	
  2130  1F22  3457               	retlw	87	;'W'
  2131  1F23  3461               	retlw	97	;'a'
  2132  1F24  3476               	retlw	118	;'v'
  2133  1F25  3465               	retlw	101	;'e'
  2134  1F26  3453               	retlw	83	;'S'
  2135  1F27  3468               	retlw	104	;'h'
  2136  1F28  3461               	retlw	97	;'a'
  2137  1F29  3472               	retlw	114	;'r'
  2138  1F2A  3465               	retlw	101	;'e'
  2139  1F2B  3400               	retlw	0
  2140  1F22                     
  2141                           	psect	cinit
  2142  02A9                     start_initialization:	
  2143                           
  2144                           ; Clear objects allocated to BANK0
  2145  02A9  01B6               	clrf	__pbssBANK0& (0+127)
  2146  02AA  01B7               	clrf	(__pbssBANK0+1)& (0+127)
  2147  02AB  01B8               	clrf	(__pbssBANK0+2)& (0+127)
  2148  02AC  01B9               	clrf	(__pbssBANK0+3)& (0+127)
  2149  02AD  01BA               	clrf	(__pbssBANK0+4)& (0+127)
  2150  02AE  01BB               	clrf	(__pbssBANK0+5)& (0+127)
  2151  02AF  01BC               	clrf	(__pbssBANK0+6)& (0+127)
  2152  02B0  01BD               	clrf	(__pbssBANK0+7)& (0+127)
  2153  02B1  01BE               	clrf	(__pbssBANK0+8)& (0+127)
  2154  02B2  01BF               	clrf	(__pbssBANK0+9)& (0+127)
  2155  02B3                     end_of_initialization:	
  2156                           ;End of C runtime variable initialization code
  2157                           
  2158  02B3  0183               	clrf	3
  2159  02B4  120A  118A  2AB7   	ljmp	_main	;jump to C main() function
  2160                           
  2161                           	psect	bssBANK0
  2162  0036                     __pbssBANK0:	
  2163  0036                     swap@b:	
  2164  0036                     	ds	10
  2165                           
  2166                           	psect	cstackCOMMON
  2167  0070                     __pcstackCOMMON:	
  2168  0070                     ?_init_lcd:	
  2169  0070                     ?_LCD_test:	
  2170                           ; 0 bytes @ 0x0
  2171                           
  2172  0070                     ?_delay_ms:	
  2173                           ; 0 bytes @ 0x0
  2174                           
  2175  0070                     ?_init_mcu:	
  2176                           ; 0 bytes @ 0x0
  2177                           
  2178  0070                     ??_init_mcu:	
  2179                           ; 0 bytes @ 0x0
  2180                           
  2181  0070                     ?_main:	
  2182                           ; 0 bytes @ 0x0
  2183                           
  2184  0070                     ?_delay_us:	
  2185                           ; 0 bytes @ 0x0
  2186                           
  2187  0070                     ?_init_lcd_spi:	
  2188                           ; 0 bytes @ 0x0
  2189                           
  2190  0070                     ??_init_lcd_spi:	
  2191                           ; 0 bytes @ 0x0
  2192                           
  2193  0070                     ?_post_data:	
  2194                           ; 0 bytes @ 0x0
  2195                           
  2196  0070                     ?_lcd_rst:	
  2197                           ; 0 bytes @ 0x0
  2198                           
  2199  0070                     ?_swap:	
  2200                           ; 0 bytes @ 0x0
  2201                           
  2202  0070                     swap@sz:	
  2203                           ; 1 bytes @ 0x0
  2204                           
  2205  0070                     delay_ms@ms:	
  2206                           ; 1 bytes @ 0x0
  2207                           
  2208  0070                     delay_us@us:	
  2209                           ; 2 bytes @ 0x0
  2210                           
  2211  0070                     post_data@data:	
  2212                           ; 2 bytes @ 0x0
  2213                           
  2214                           
  2215                           ; 2 bytes @ 0x0
  2216  0070                     	ds	1
  2217  0071                     ??_swap:	
  2218                           
  2219                           ; 0 bytes @ 0x1
  2220  0071                     	ds	1
  2221  0072                     ??_delay_ms:	
  2222  0072                     ??_delay_us:	
  2223                           ; 0 bytes @ 0x2
  2224                           
  2225  0072                     ??_post_data:	
  2226                           ; 0 bytes @ 0x2
  2227                           
  2228  0072                     ?_post_cmd:	
  2229                           ; 0 bytes @ 0x2
  2230                           
  2231  0072                     delay_ms@i:	
  2232                           ; 0 bytes @ 0x2
  2233                           
  2234  0072                     delay_us@i:	
  2235                           ; 1 bytes @ 0x2
  2236                           
  2237  0072                     post_cmd@index:	
  2238                           ; 1 bytes @ 0x2
  2239                           
  2240                           
  2241                           ; 2 bytes @ 0x2
  2242  0072                     	ds	1
  2243  0073                     ??_lcd_rst:	
  2244  0073                     swap@s:	
  2245                           ; 0 bytes @ 0x3
  2246                           
  2247                           
  2248                           ; 1 bytes @ 0x3
  2249  0073                     	ds	1
  2250  0074                     swap@i:	
  2251  0074                     post_cmd@cmd:	
  2252                           ; 1 bytes @ 0x4
  2253                           
  2254                           
  2255                           ; 2 bytes @ 0x4
  2256  0074                     	ds	2
  2257  0076                     ??_init_lcd:	
  2258  0076                     ??_LCD_test:	
  2259                           ; 0 bytes @ 0x6
  2260                           
  2261  0076                     ??_post_cmd:	
  2262                           ; 0 bytes @ 0x6
  2263                           
  2264  0076                     ?_DisplayChar:	
  2265                           ; 0 bytes @ 0x6
  2266                           
  2267  0076                     ?_DisplayChar_Reverse:	
  2268                           ; 0 bytes @ 0x6
  2269                           
  2270  0076                     DisplayChar@postion_x:	
  2271                           ; 0 bytes @ 0x6
  2272                           
  2273  0076                     DisplayChar_Reverse@postion_x:	
  2274                           ; 1 bytes @ 0x6
  2275                           
  2276  0076                     init_lcd@x:	
  2277                           ; 1 bytes @ 0x6
  2278                           
  2279  0076                     LCD_test@temp:	
  2280                           ; 2 bytes @ 0x6
  2281                           
  2282                           
  2283                           ; 2 bytes @ 0x6
  2284  0076                     	ds	1
  2285  0077                     DisplayChar@postion_y:	
  2286  0077                     DisplayChar_Reverse@postion_y:	
  2287                           ; 1 bytes @ 0x7
  2288                           
  2289                           
  2290                           ; 1 bytes @ 0x7
  2291  0077                     	ds	1
  2292  0078                     ??_DisplayChar:	
  2293  0078                     ??_DisplayChar_Reverse:	
  2294                           ; 0 bytes @ 0x8
  2295                           
  2296  0078                     LCD_test@i:	
  2297                           ; 0 bytes @ 0x8
  2298                           
  2299  0078                     init_lcd@y:	
  2300                           ; 1 bytes @ 0x8
  2301                           
  2302                           
  2303                           ; 2 bytes @ 0x8
  2304  0078                     	ds	1
  2305  0079                     LCD_test@num:	
  2306                           
  2307                           ; 2 bytes @ 0x9
  2308  0079                     	ds	1
  2309  007A                     ??_DisplayString:	
  2310                           
  2311                           ; 0 bytes @ 0xA
  2312  007A                     	ds	1
  2313  007B                     LCD_test@n:	
  2314                           
  2315                           ; 1 bytes @ 0xB
  2316  007B                     	ds	1
  2317  007C                     ??_main:	
  2318                           
  2319                           	psect	cstackBANK0
  2320  0020                     __pcstackBANK0:	
  2321                           ; 0 bytes @ 0xC
  2322                           
  2323  0020                     DisplayChar@casc:	
  2324  0020                     DisplayChar_Reverse@casc:	
  2325                           ; 1 bytes @ 0x0
  2326                           
  2327                           
  2328                           ; 1 bytes @ 0x0
  2329  0020                     	ds	1
  2330  0021                     DisplayChar@p:	
  2331  0021                     DisplayChar_Reverse@p:	
  2332                           ; 2 bytes @ 0x1
  2333                           
  2334                           
  2335                           ; 2 bytes @ 0x1
  2336  0021                     	ds	2
  2337  0023                     DisplayChar@b:	
  2338  0023                     DisplayChar_Reverse@b:	
  2339                           ; 1 bytes @ 0x3
  2340                           
  2341                           
  2342                           ; 1 bytes @ 0x3
  2343  0023                     	ds	1
  2344  0024                     DisplayChar@i:	
  2345  0024                     DisplayChar_Reverse@i:	
  2346                           ; 1 bytes @ 0x4
  2347                           
  2348                           
  2349                           ; 1 bytes @ 0x4
  2350  0024                     	ds	1
  2351  0025                     DisplayChar@j:	
  2352  0025                     DisplayChar_Reverse@j:	
  2353                           ; 1 bytes @ 0x5
  2354                           
  2355                           
  2356                           ; 1 bytes @ 0x5
  2357  0025                     	ds	1
  2358  0026                     ?_DisplayString:	
  2359  0026                     DisplayString@s:	
  2360                           ; 0 bytes @ 0x6
  2361                           
  2362                           
  2363                           ; 2 bytes @ 0x6
  2364  0026                     	ds	2
  2365  0028                     DisplayString@x:	
  2366                           
  2367                           ; 1 bytes @ 0x8
  2368  0028                     	ds	1
  2369  0029                     DisplayString@y:	
  2370                           
  2371                           ; 1 bytes @ 0x9
  2372  0029                     	ds	1
  2373  002A                     DisplayString@Reverse:	
  2374                           
  2375                           ; 1 bytes @ 0xA
  2376  002A                     	ds	1
  2377  002B                     DisplayString@a:	
  2378                           
  2379                           ; 10 bytes @ 0xB
  2380  002B                     	ds	10
  2381  0035                     DisplayString@i:	
  2382                           
  2383                           ; 1 bytes @ 0x15
  2384  0035                     	ds	1
  2385                           
  2386                           	psect	maintext
  2387  02B7                     __pmaintext:	
  2388 ;;Data sizes: Strings 10, constant 2064, data 0, bss 10, persistent 0 stack 0
  2389 ;;Auto spaces:   Size  Autos    Used
  2390 ;; COMMON          14     12      12
  2391 ;; BANK0           80     22      32
  2392 ;; BANK1           80      0       0
  2393 ;; BANK3           96      0       0
  2394 ;; BANK2           96      0       0
  2395 ;;
  2396 ;; Pointer list with targets:
  2397 ;; ?_swap	PTR unsigned char  size(1) Largest target is 10
  2398 ;;		 -> DisplayString@a(BANK0[10]), swap@b(BANK0[10]), 
  2399 ;;
  2400 ;; DisplayString@s	PTR unsigned char  size(2) Largest target is 10
  2401 ;;		 -> DisplayString@a(BANK0[10]), swap@b(BANK0[10]), STR_2(CODE[10]), STR_1(CODE[10]), 
  2402 ;;
  2403 ;; sp__swap	PTR unsigned char  size(1) Largest target is 10
  2404 ;;		 -> DisplayString@a(BANK0[10]), swap@b(BANK0[10]), 
  2405 ;;
  2406 ;; swap@s	PTR unsigned char  size(1) Largest target is 10
  2407 ;;		 -> DisplayString@a(BANK0[10]), swap@b(BANK0[10]), 
  2408 ;;
  2409 ;; DisplayChar_Reverse@p	PTR unsigned char  size(2) Largest target is 2048
  2410 ;;		 -> ascii(CODE[2048]), 
  2411 ;;
  2412 ;; DisplayChar@p	PTR unsigned char  size(2) Largest target is 2048
  2413 ;;		 -> ascii(CODE[2048]), 
  2414 ;;
  2415 ;;
  2416 ;; Critical Paths under _main in COMMON
  2417 ;;
  2418 ;;   _main->_LCD_test
  2419 ;;   _DisplayString->_DisplayChar_Reverse
  2420 ;;   _DisplayString->_DisplayChar
  2421 ;;   _DisplayChar_Reverse->_post_cmd
  2422 ;;   _DisplayChar->_post_cmd
  2423 ;;   _LCD_test->_post_cmd
  2424 ;;   _init_lcd->_post_cmd
  2425 ;;   _post_cmd->_post_data
  2426 ;;   _lcd_rst->_delay_us
  2427 ;;
  2428 ;; Critical Paths under _main in BANK0
  2429 ;;
  2430 ;;   _main->_DisplayString
  2431 ;;   _DisplayString->_DisplayChar_Reverse
  2432 ;;   _DisplayString->_DisplayChar
  2433 ;;
  2434 ;; Critical Paths under _main in BANK1
  2435 ;;
  2436 ;;   None.
  2437 ;;
  2438 ;; Critical Paths under _main in BANK3
  2439 ;;
  2440 ;;   None.
  2441 ;;
  2442 ;; Critical Paths under _main in BANK2
  2443 ;;
  2444 ;;   None.
  2445 ;;
  2446 ;;Main: autosize = 0, tempsize = 0, incstack = 0, save=0
  2447 ;;
  2448 ;;
  2449 ;;Call Graph Tables:
  2450 ;;
  2451 ;; ---------------------------------------------------------------------------------
  2452 ;; (Depth) Function   	        Calls       Base Space   Used Autos Params    Refs
  2453 ;; ---------------------------------------------------------------------------------
  2454 ;; (0) _main                                                 0     0      0    2302
  2455 ;;                           _init_mcu
  2456 ;;                           _init_lcd
  2457 ;;                           _LCD_test
  2458 ;;                           _delay_ms
  2459 ;;                      _DisplayString
  2460 ;; ---------------------------------------------------------------------------------
  2461 ;; (1) _DisplayString                                       17    12      5    1401
  2462 ;;                                             10 COMMON     1     1      0
  2463 ;;                                              6 BANK0     16    11      5
  2464 ;;                               _swap
  2465 ;;                _DisplayChar_Reverse
  2466 ;;                        _DisplayChar
  2467 ;; ---------------------------------------------------------------------------------
  2468 ;; (2) _DisplayChar_Reverse                                 10     8      2     448
  2469 ;;                                              6 COMMON     4     2      2
  2470 ;;                                              0 BANK0      6     6      0
  2471 ;;                           _post_cmd
  2472 ;;                          _post_data
  2473 ;; ---------------------------------------------------------------------------------
  2474 ;; (2) _DisplayChar                                         10     8      2     448
  2475 ;;                                              6 COMMON     4     2      2
  2476 ;;                                              0 BANK0      6     6      0
  2477 ;;                           _post_cmd
  2478 ;;                          _post_data
  2479 ;; ---------------------------------------------------------------------------------
  2480 ;; (1) _LCD_test                                             6     6      0     527
  2481 ;;                                              6 COMMON     6     6      0
  2482 ;;                           _post_cmd
  2483 ;;                          _post_data
  2484 ;;                           _delay_ms
  2485 ;; ---------------------------------------------------------------------------------
  2486 ;; (1) _init_lcd                                             4     4      0     299
  2487 ;;                                              6 COMMON     4     4      0
  2488 ;;                       _init_lcd_spi
  2489 ;;                            _lcd_rst
  2490 ;;                           _post_cmd
  2491 ;;                          _post_data
  2492 ;; ---------------------------------------------------------------------------------
  2493 ;; (3) _post_cmd                                             4     0      4      88
  2494 ;;                                              2 COMMON     4     0      4
  2495 ;;                          _post_data
  2496 ;; ---------------------------------------------------------------------------------
  2497 ;; (2) _lcd_rst                                              0     0      0      75
  2498 ;;                           _delay_us
  2499 ;; ---------------------------------------------------------------------------------
  2500 ;; (2) _swap                                                 5     4      1     138
  2501 ;;                                              0 COMMON     5     4      1
  2502 ;; ---------------------------------------------------------------------------------
  2503 ;; (3) _post_data                                            2     0      2      44
  2504 ;;                                              0 COMMON     2     0      2
  2505 ;; ---------------------------------------------------------------------------------
  2506 ;; (2) _init_lcd_spi                                         0     0      0       0
  2507 ;; ---------------------------------------------------------------------------------
  2508 ;; (3) _delay_us                                             3     1      2      75
  2509 ;;                                              0 COMMON     3     1      2
  2510 ;; ---------------------------------------------------------------------------------
  2511 ;; (1) _delay_ms                                             3     1      2      75
  2512 ;;                                              0 COMMON     3     1      2
  2513 ;; ---------------------------------------------------------------------------------
  2514 ;; (1) _init_mcu                                             0     0      0       0
  2515 ;; ---------------------------------------------------------------------------------
  2516 ;; Estimated maximum stack depth 3
  2517 ;; ---------------------------------------------------------------------------------
  2518 ;; Call Graph Graphs:
  2519 ;; _main (ROOT)
  2520 ;;   _init_mcu
  2521 ;;   _init_lcd
  2522 ;;     _init_lcd_spi
  2523 ;;     _lcd_rst
  2524 ;;       _delay_us
  2525 ;;     _post_cmd
  2526 ;;       _post_data
  2527 ;;     _post_data
  2528 ;;   _LCD_test
  2529 ;;     _post_cmd
  2530 ;;       _post_data
  2531 ;;     _post_data
  2532 ;;     _delay_ms
  2533 ;;   _delay_ms
  2534 ;;   _DisplayString
  2535 ;;     _swap
  2536 ;;     _DisplayChar_Reverse
  2537 ;;       _post_cmd
  2538 ;;         _post_data
  2539 ;;       _post_data
  2540 ;;     _DisplayChar
  2541 ;;       _post_cmd
  2542 ;;         _post_data
  2543 ;;       _post_data
  2544 ;;
  2545 ;; Address spaces:
  2546 ;;Name               Size   Autos  Total    Cost      Usage
  2547 ;;BITCOMMON            E      0       0       0        0.0%
  2548 ;;EEDATA             100      0       0       0        0.0%
  2549 ;;NULL                 0      0       0       0        0.0%
  2550 ;;CODE                 0      0       0       0        0.0%
  2551 ;;COMMON               E      C       C       1       85.7%
  2552 ;;BITSFR0              0      0       0       1        0.0%
  2553 ;;SFR0                 0      0       0       1        0.0%
  2554 ;;BITSFR1              0      0       0       2        0.0%
  2555 ;;SFR1                 0      0       0       2        0.0%
  2556 ;;STACK                0      0       4       2        0.0%
  2557 ;;ABS                  0      0      2C       3        0.0%
  2558 ;;BITBANK0            50      0       0       4        0.0%
  2559 ;;BITSFR3              0      0       0       4        0.0%
  2560 ;;SFR3                 0      0       0       4        0.0%
  2561 ;;BANK0               50     16      20       5       40.0%
  2562 ;;BITSFR2              0      0       0       5        0.0%
  2563 ;;SFR2                 0      0       0       5        0.0%
  2564 ;;BITBANK1            50      0       0       6        0.0%
  2565 ;;BANK1               50      0       0       7        0.0%
  2566 ;;BITBANK3            60      0       0       8        0.0%
  2567 ;;BANK3               60      0       0       9        0.0%
  2568 ;;BITBANK2            60      0       0      10        0.0%
  2569 ;;BANK2               60      0       0      11        0.0%
  2570 ;;DATA                 0      0      30      12        0.0%
  2571                           
  2572                           
  2573 ;; *************** function _main *****************
  2574 ;; Defined at:
  2575 ;;		line 22 in file "C:\Users\Work\Desktop\zjpack\program\PIC\test\lcd22\pic_lcd22_show\main.c"
  2576 ;; Parameters:    Size  Location     Type
  2577 ;;		None
  2578 ;; Auto vars:     Size  Location     Type
  2579 ;;		None
  2580 ;; Return value:  Size  Location     Type
  2581 ;;		None               void
  2582 ;; Registers used:
  2583 ;;		wreg, fsr0l, fsr0h, status,2, status,0, btemp+1, pclath, cstack
  2584 ;; Tracked objects:
  2585 ;;		On entry : 17F/0
  2586 ;;		On exit  : 60/0
  2587 ;;		Unchanged: FFE00/0
  2588 ;; Data sizes:     COMMON   BANK0   BANK1   BANK3   BANK2
  2589 ;;      Params:         0       0       0       0       0
  2590 ;;      Locals:         0       0       0       0       0
  2591 ;;      Temps:          0       0       0       0       0
  2592 ;;      Totals:         0       0       0       0       0
  2593 ;;Total ram usage:        0 bytes
  2594 ;; Hardware stack levels required when called:    4
  2595 ;; This function calls:
  2596 ;;		_init_mcu
  2597 ;;		_init_lcd
  2598 ;;		_LCD_test
  2599 ;;		_delay_ms
  2600 ;;		_DisplayString
  2601 ;; This function is called by:
  2602 ;;		Startup code after reset
  2603 ;; This function uses a non-reentrant model
  2604 ;;
  2605  02B7                     _main:	
  2606                           
  2607                           ;main.c: 24: init_mcu();
  2608                           
  2609                           ; Regs used in _main: [wreg-fsr0h+status,2+status,0+btemp+1+pclath+cstack]
  2610  02B7  120A  118A  22A3   	fcall	_init_mcu
      +       120A  118A         
  2611                           
  2612                           ;main.c: 25: init_lcd();
  2613  02BC  120A  118A  25AC   	fcall	_init_lcd
      +       120A  118A         
  2614                           
  2615                           ;main.c: 27: LCD_test();
  2616  02C1  120A  118A  24E1   	fcall	_LCD_test
      +       120A  118A         
  2617                           
  2618                           ;main.c: 28: TRISB=0;PORTB=0XF0;delay_ms(1000);
  2619  02C6  1683               	bsf	3,5	;RP0=1, select bank1
  2620  02C7  0186               	clrf	6	;volatile
  2621  02C8  30F0               	movlw	240
  2622  02C9  1283               	bcf	3,5	;RP0=0, select bank0
  2623  02CA  0086               	movwf	6	;volatile
  2624  02CB  30E8               	movlw	232
  2625  02CC  00F0               	movwf	?_delay_ms
  2626  02CD  3003               	movlw	3
  2627  02CE  00F1               	movwf	?_delay_ms+1
  2628  02CF  120A  118A  274E   	fcall	_delay_ms
      +       120A  118A         
  2629                           
  2630                           ;main.c: 29: DisplayString("WaveShare",6,9,0);
  2631  02D4  3022               	movlw	low (STR_1| (0+32768))
  2632  02D5  00A6               	movwf	?_DisplayString
  2633  02D6  309F               	movlw	high (STR_1| (0+32768))
  2634  02D7  00A7               	movwf	?_DisplayString+1
  2635  02D8  3006               	movlw	6
  2636  02D9  00A8               	movwf	?_DisplayString+2
  2637  02DA  3009               	movlw	9
  2638  02DB  00A9               	movwf	?_DisplayString+3
  2639  02DC  01AA               	clrf	?_DisplayString+4
  2640  02DD  120A  118A  2300   	fcall	_DisplayString
      +       120A  118A         
  2641                           
  2642                           ;main.c: 30: DisplayString("WaveShare",6,10,1);
  2643  02E2  3022               	movlw	low (STR_1| (0+32768))
  2644  02E3  00A6               	movwf	?_DisplayString
  2645  02E4  309F               	movlw	high (STR_1| (0+32768))
  2646  02E5  00A7               	movwf	?_DisplayString+1
  2647  02E6  3006               	movlw	6
  2648  02E7  00A8               	movwf	?_DisplayString+2
  2649  02E8  300A               	movlw	10
  2650  02E9  00A9               	movwf	?_DisplayString+3
  2651  02EA  01AA               	clrf	?_DisplayString+4
  2652  02EB  0AAA               	incf	?_DisplayString+4,f
  2653  02EC  120A  118A  2300   	fcall	_DisplayString
      +       120A  118A         
  2654                           
  2655                           ;main.c: 31: TRISB=0;PORTB=0X0f;delay_ms(1000);
  2656  02F1  1683               	bsf	3,5	;RP0=1, select bank1
  2657  02F2  0186               	clrf	6	;volatile
  2658  02F3  300F               	movlw	15
  2659  02F4  1283               	bcf	3,5	;RP0=0, select bank0
  2660  02F5  0086               	movwf	6	;volatile
  2661  02F6  30E8               	movlw	232
  2662  02F7  00F0               	movwf	?_delay_ms
  2663  02F8  3003               	movlw	3
  2664  02F9  00F1               	movwf	?_delay_ms+1
  2665  02FA  120A  118A  274E   	fcall	_delay_ms
      +       120A  118A         
  2666  02FF                     l697:	
  2667  02FF  2AFF               	goto	l697
  2668  0300                     __end_of_main:	
  2669                           
  2670                           	psect	text300
  2671  0300                     __ptext300:	
  2672 ;; =============== function _main ends ============
  2673                           
  2674                           
  2675 ;; *************** function _DisplayString *****************
  2676 ;; Defined at:
  2677 ;;		line 309 in file "C:\Users\Work\Desktop\zjpack\program\PIC\test\lcd22\pic_lcd22_show\lcd_22.c"
  2678 ;; Parameters:    Size  Location     Type
  2679 ;;  s               2    6[BANK0 ] PTR unsigned char 
  2680 ;;		 -> DisplayString@a(10), swap@b(10), STR_2(10), STR_1(10), 
  2681 ;;  x               1    8[BANK0 ] unsigned char 
  2682 ;;  y               1    9[BANK0 ] unsigned char 
  2683 ;;  Reverse         1   10[BANK0 ] unsigned char 
  2684 ;; Auto vars:     Size  Location     Type
  2685 ;;  a              10   11[BANK0 ] unsigned char [10]
  2686 ;;  i               1   21[BANK0 ] unsigned char 
  2687 ;; Return value:  Size  Location     Type
  2688 ;;		None               void
  2689 ;; Registers used:
  2690 ;;		wreg, fsr0l, fsr0h, status,2, status,0, btemp+1, pclath, cstack
  2691 ;; Tracked objects:
  2692 ;;		On entry : 60/0
  2693 ;;		On exit  : 60/0
  2694 ;;		Unchanged: FFE00/0
  2695 ;; Data sizes:     COMMON   BANK0   BANK1   BANK3   BANK2
  2696 ;;      Params:         0       5       0       0       0
  2697 ;;      Locals:         0      11       0       0       0
  2698 ;;      Temps:          1       0       0       0       0
  2699 ;;      Totals:         1      16       0       0       0
  2700 ;;Total ram usage:       17 bytes
  2701 ;; Hardware stack levels used:    1
  2702 ;; Hardware stack levels required when called:    3
  2703 ;; This function calls:
  2704 ;;		_swap
  2705 ;;		_DisplayChar_Reverse
  2706 ;;		_DisplayChar
  2707 ;; This function is called by:
  2708 ;;		_main
  2709 ;; This function uses a non-reentrant model
  2710 ;;
  2711  0300                     _DisplayString:	
  2712                           
  2713                           ;lcd_22.c: 310: u8 a[10],i;
  2714                           ;lcd_22.c: 311: if(Reverse)
  2715                           
  2716                           ; Regs used in _DisplayString: [wreg-fsr0h+status,2+status,0+btemp+1+pclath+cstack]
  2717  0300  082A               	movf	DisplayString@Reverse,w
  2718  0301  1903               	btfsc	3,2
  2719  0302  2B2D               	goto	l3432
  2720                           
  2721                           ;lcd_22.c: 312: {
  2722                           ;lcd_22.c: 313: i=0;
  2723  0303  01B5               	clrf	DisplayString@i
  2724  0304                     l3412:	
  2725                           ;lcd_22.c: 314: while(*s){a[i]=*s;s++;i++;}
  2726                           
  2727  0304  0827               	movf	DisplayString@s+1,w
  2728  0305  00FF               	movwf	127
  2729  0306  0826               	movf	DisplayString@s,w
  2730  0307  0084               	movwf	4
  2731  0308  160A  118A  2700   	fcall	stringtab
      +       120A  118A         
  2732  030D  3800               	iorlw	0
  2733  030E  1903               	btfsc	3,2
  2734  030F  2B25               	goto	l3414
  2735  0310  0827               	movf	DisplayString@s+1,w
  2736  0311  00FF               	movwf	127
  2737  0312  0826               	movf	DisplayString@s,w
  2738  0313  0084               	movwf	4
  2739  0314  160A  118A  2700   	fcall	stringtab
      +       120A  118A         
  2740  0319  00FA               	movwf	??_DisplayString
  2741  031A  0835               	movf	DisplayString@i,w
  2742  031B  3E2B               	addlw	DisplayString@a& (0+255)
  2743  031C  0084               	movwf	4
  2744  031D  087A               	movf	??_DisplayString,w
  2745  031E  1383               	bcf	3,7	;select IRP bank0
  2746  031F  0080               	movwf	0
  2747  0320  0AA6               	incf	DisplayString@s,f
  2748  0321  1903               	skipnz
  2749  0322  0AA7               	incf	DisplayString@s+1,f
  2750  0323  0AB5               	incf	DisplayString@i,f
  2751  0324  2B04               	goto	l3412
  2752  0325                     l3414:	
  2753                           
  2754                           ;lcd_22.c: 315: s=swap(a,sizeof(a));
  2755  0325  300A               	movlw	10
  2756  0326  00F0               	movwf	?_swap
  2757  0327  302B               	movlw	DisplayString@a& (0+255)
  2758  0328  236E               	fcall	_swap
  2759  0329  1283               	bcf	3,5	;RP0=0, select bank0
  2760  032A  1303               	bcf	3,6	;RP1=0, select bank0
  2761  032B  00A6               	movwf	DisplayString@s
  2762  032C  01A7               	clrf	DisplayString@s+1
  2763  032D                     l3432:	
  2764  032D  0827               	movf	DisplayString@s+1,w
  2765  032E  00FF               	movwf	127
  2766  032F  0826               	movf	DisplayString@s,w
  2767  0330  0084               	movwf	4
  2768  0331  160A  118A  2700   	fcall	stringtab
      +       120A  118A         
  2769  0336  3800               	iorlw	0
  2770  0337  1903               	btfsc	3,2
  2771  0338  0008               	return
  2772                           
  2773                           ;lcd_22.c: 318: {
  2774                           ;lcd_22.c: 319: if(Reverse)
  2775  0339  082A               	movf	DisplayString@Reverse,w
  2776  033A  1903               	btfsc	3,2
  2777  033B  2B4F               	goto	l3420
  2778                           
  2779                           ;lcd_22.c: 320: {DisplayChar_Reverse(*s,x,y);}
  2780  033C  0828               	movf	DisplayString@x,w
  2781  033D  00F6               	movwf	?_DisplayChar_Reverse
  2782  033E  0829               	movf	DisplayString@y,w
  2783  033F  00F7               	movwf	?_DisplayChar_Reverse+1
  2784  0340  0827               	movf	DisplayString@s+1,w
  2785  0341  00FF               	movwf	127
  2786  0342  0826               	movf	DisplayString@s,w
  2787  0343  0084               	movwf	4
  2788  0344  160A  118A  2700   	fcall	stringtab
      +       120A  118A         
  2789  0349  120A  118A  244D   	fcall	_DisplayChar_Reverse
      +       120A  118A         
  2790  034E  2B5F               	goto	l3422
  2791  034F                     l3420:	
  2792                           
  2793                           ;lcd_22.c: 321: else
  2794                           ;lcd_22.c: 322: {DisplayChar(*s,x,y);}
  2795  034F  0828               	movf	DisplayString@x,w
  2796  0350  00F6               	movwf	?_DisplayChar
  2797  0351  0829               	movf	DisplayString@y,w
  2798  0352  00F7               	movwf	?_DisplayChar+1
  2799  0353  0827               	movf	DisplayString@s+1,w
  2800  0354  00FF               	movwf	127
  2801  0355  0826               	movf	DisplayString@s,w
  2802  0356  0084               	movwf	4
  2803  0357  160A  118A  2700   	fcall	stringtab
      +       120A  118A         
  2804  035C  2392  120A  118A   	fcall	_DisplayChar
  2805  035F                     l3422:	
  2806                           
  2807                           ;lcd_22.c: 323: if(++x>=30)
  2808  035F  301E               	movlw	30
  2809  0360  0AA8               	incf	DisplayString@x,f
  2810  0361  0228               	subwf	DisplayString@x,w
  2811  0362  1C03               	skipc
  2812  0363  2B6A               	goto	l3430
  2813  0364  3014               	movlw	20
  2814                           
  2815                           ;lcd_22.c: 324: {
  2816                           ;lcd_22.c: 325: x=0;
  2817  0365  01A8               	clrf	DisplayString@x
  2818                           
  2819                           ;lcd_22.c: 326: if(++y>=20)
  2820  0366  0AA9               	incf	DisplayString@y,f
  2821  0367  0229               	subwf	DisplayString@y,w
  2822  0368  1803               	btfsc	3,0
  2823                           
  2824                           ;lcd_22.c: 327: {
  2825                           ;lcd_22.c: 328: y=0;
  2826  0369  01A9               	clrf	DisplayString@y
  2827  036A                     l3430:	
  2828                           
  2829                           ;lcd_22.c: 329: }
  2830                           ;lcd_22.c: 330: }
  2831                           ;lcd_22.c: 331: s++;
  2832  036A  0AA6               	incf	DisplayString@s,f
  2833  036B  1903               	skipnz
  2834  036C  0AA7               	incf	DisplayString@s+1,f
  2835  036D  2B2D               	goto	l3432
  2836  036E                     __end_of_DisplayString:	
  2837  036E                     __ptext307:	
  2838 ;; =============== function _lcd_rst ends ============
  2839                           
  2840                           
  2841 ;; *************** function _swap *****************
  2842 ;; Defined at:
  2843 ;;		line 295 in file "C:\Users\Work\Desktop\zjpack\program\PIC\test\lcd22\pic_lcd22_show\lcd_22.c"
  2844 ;; Parameters:    Size  Location     Type
  2845 ;;  s               1    wreg     PTR unsigned char 
  2846 ;;		 -> DisplayString@a(10), swap@b(10), 
  2847 ;;  sz              1    0[COMMON] unsigned char 
  2848 ;; Auto vars:     Size  Location     Type
  2849 ;;  s               1    3[COMMON] PTR unsigned char 
  2850 ;;		 -> DisplayString@a(10), swap@b(10), 
  2851 ;;  i               1    4[COMMON] unsigned char 
  2852 ;; Return value:  Size  Location     Type
  2853 ;;                  1    wreg      PTR unsigned char 
  2854 ;; Registers used:
  2855 ;;		wreg, fsr0l, fsr0h, status,2, status,0
  2856 ;; Tracked objects:
  2857 ;;		On entry : 60/0
  2858 ;;		On exit  : 0/0
  2859 ;;		Unchanged: FFE00/0
  2860 ;; Data sizes:     COMMON   BANK0   BANK1   BANK3   BANK2
  2861 ;;      Params:         1       0       0       0       0
  2862 ;;      Locals:         2       0       0       0       0
  2863 ;;      Temps:          2       0       0       0       0
  2864 ;;      Totals:         5       0       0       0       0
  2865 ;;Total ram usage:        5 bytes
  2866 ;; Hardware stack levels used:    1
  2867 ;; This function calls:
  2868 ;;		Nothing
  2869 ;; This function is called by:
  2870 ;;		_DisplayString
  2871 ;; This function uses a non-reentrant model
  2872 ;;
  2873  036E                     _swap:	
  2874                           
  2875                           ; Regs used in _swap: [wreg-fsr0h+status,2+status,0]
  2876                           ;swap@s stored from wreg
  2877  036E  00F3               	movwf	swap@s
  2878                           
  2879                           ;lcd_22.c: 297: static u8 b[10]={0};
  2880                           ;lcd_22.c: 298: s+=sz-2;
  2881  036F  0870               	movf	swap@sz,w
  2882  0370  3EFE               	addlw	-2
  2883  0371  07F3               	addwf	swap@s,f
  2884                           
  2885                           ;lcd_22.c: 299: for(i=0;i<sz-1;i++)
  2886  0372  01F4               	clrf	swap@i
  2887  0373                     l3046:	
  2888  0373  0870               	movf	swap@sz,w
  2889  0374  3EFF               	addlw	255
  2890  0375  00F1               	movwf	??_swap
  2891  0376  30FF               	movlw	255
  2892  0377  1803               	skipnc
  2893  0378  3000               	movlw	0
  2894  0379  00F2               	movwf	??_swap+1
  2895  037A  3A80               	xorlw	128
  2896  037B  3C80               	sublw	128
  2897  037C  1D03               	skipz
  2898  037D  2B80               	goto	u315
  2899  037E  0871               	movf	??_swap,w
  2900  037F  0274               	subwf	swap@i,w
  2901  0380                     u315:	
  2902  0380  1803               	btfsc	3,0
  2903  0381  2B8F               	goto	l3048
  2904                           
  2905                           ;lcd_22.c: 300: {
  2906                           ;lcd_22.c: 301: b[i]=*s;
  2907  0382  0873               	movf	swap@s,w
  2908  0383  0084               	movwf	4
  2909  0384  1383               	bcf	3,7	;select IRP bank0
  2910  0385  0800               	movf	0,w
  2911  0386  00F1               	movwf	??_swap
  2912  0387  0874               	movf	swap@i,w
  2913  0388  3E36               	addlw	swap@b& (0+255)
  2914  0389  0084               	movwf	4
  2915  038A  0871               	movf	??_swap,w
  2916  038B  0080               	movwf	0
  2917                           
  2918                           ;lcd_22.c: 302: s--;
  2919  038C  03F3               	decf	swap@s,f
  2920  038D  0AF4               	incf	swap@i,f
  2921  038E  2B73               	goto	l3046
  2922  038F                     l3048:	
  2923                           
  2924                           ;lcd_22.c: 303: }
  2925                           ;lcd_22.c: 304: s=b;
  2926  038F  3036               	movlw	swap@b& (0+255)
  2927  0390  00F3               	movwf	swap@s
  2928                           
  2929                           ;lcd_22.c: 305: return s;
  2930  0391  0008               	return
  2931  0392                     __end_of_swap:	
  2932  0392                     __ptext302:	
  2933 ;; =============== function _DisplayChar_Reverse ends ============
  2934                           
  2935                           
  2936 ;; *************** function _DisplayChar *****************
  2937 ;; Defined at:
  2938 ;;		line 218 in file "C:\Users\Work\Desktop\zjpack\program\PIC\test\lcd22\pic_lcd22_show\lcd_22.c"
  2939 ;; Parameters:    Size  Location     Type
  2940 ;;  casc            1    wreg     unsigned char 
  2941 ;;  postion_x       1    6[COMMON] unsigned char 
  2942 ;;  postion_y       1    7[COMMON] unsigned char 
  2943 ;; Auto vars:     Size  Location     Type
  2944 ;;  casc            1    0[BANK0 ] unsigned char 
  2945 ;;  p               2    1[BANK0 ] PTR unsigned char 
  2946 ;;		 -> ascii(2048), 
  2947 ;;  j               1    5[BANK0 ] unsigned char 
  2948 ;;  i               1    4[BANK0 ] unsigned char 
  2949 ;;  b               1    3[BANK0 ] unsigned char 
  2950 ;; Return value:  Size  Location     Type
  2951 ;;		None               void
  2952 ;; Registers used:
  2953 ;;		wreg, fsr0l, fsr0h, status,2, status,0, btemp+1, pclath, cstack
  2954 ;; Tracked objects:
  2955 ;;		On entry : 60/0
  2956 ;;		On exit  : 60/0
  2957 ;;		Unchanged: FFE9F/0
  2958 ;; Data sizes:     COMMON   BANK0   BANK1   BANK3   BANK2
  2959 ;;      Params:         2       0       0       0       0
  2960 ;;      Locals:         0       6       0       0       0
  2961 ;;      Temps:          2       0       0       0       0
  2962 ;;      Totals:         4       6       0       0       0
  2963 ;;Total ram usage:       10 bytes
  2964 ;; Hardware stack levels used:    1
  2965 ;; Hardware stack levels required when called:    2
  2966 ;; This function calls:
  2967 ;;		_post_cmd
  2968 ;;		_post_data
  2969 ;; This function is called by:
  2970 ;;		_DisplayString
  2971 ;; This function uses a non-reentrant model
  2972 ;;
  2973  0392                     _DisplayChar:	
  2974                           
  2975                           ; Regs used in _DisplayChar: [wreg-fsr0h+status,2+status,0+btemp+1+pclath+cstack]
  2976                           ;DisplayChar@casc stored from wreg
  2977  0392  00A0               	movwf	DisplayChar@casc
  2978                           
  2979                           ;lcd_22.c: 219: u8 i,j,b;
  2980                           ;lcd_22.c: 220: u8 *p;
  2981                           ;lcd_22.c: 222: {TRISA=0;RA0=0;};
  2982  0393  2440  120A  118A   	fcall	PL8	;call to abstracted procedure
  2983                           
  2984                           ;lcd_22.c: 223: post_cmd(0x08,postion_x*8);
  2985  0396  2430               	fcall	PL4	;call to abstracted procedure
  2986  0397  00F4               	movwf	?_post_cmd+2
  2987  0398  0879               	movf	??_DisplayChar+1,w
  2988  0399  00F5               	movwf	?_post_cmd+3
  2989  039A  120A  118A  272F   	fcall	_post_cmd
      +       120A  118A         
  2990                           
  2991                           ;lcd_22.c: 224: post_cmd(0x0a,postion_y*16);
  2992  039F  300A               	movlw	10
  2993  03A0  00F2               	movwf	?_post_cmd
  2994  03A1  01F3               	clrf	?_post_cmd+1
  2995  03A2  0877               	movf	DisplayChar@postion_y,w
  2996  03A3  2423               	fcall	PL3	;call to abstracted procedure
  2997  03A4  00F4               	movwf	?_post_cmd+2
  2998  03A5  0879               	movf	??_DisplayChar+1,w
  2999  03A6  00F5               	movwf	?_post_cmd+3
  3000  03A7  120A  118A  272F   	fcall	_post_cmd
      +       120A  118A         
  3001                           
  3002                           ;lcd_22.c: 225: post_cmd(0x09,postion_x*8+7);
  3003  03AC  3009               	movlw	9
  3004  03AD  2430  120A  118A   	fcall	PL4	;call to abstracted procedure
  3005  03B0  3E07               	addlw	7
  3006  03B1  2446               	fcall	PL12	;call to abstracted procedure
  3007  03B2  120A  118A  272F   	fcall	_post_cmd
      +       120A  118A         
  3008                           
  3009                           ;lcd_22.c: 226: post_cmd(0x0b,postion_y*16+15);
  3010  03B7  300B               	movlw	11
  3011  03B8  00F2               	movwf	?_post_cmd
  3012  03B9  01F3               	clrf	?_post_cmd+1
  3013  03BA  0877               	movf	DisplayChar@postion_y,w
  3014  03BB  2423  120A  118A   	fcall	PL3	;call to abstracted procedure
  3015  03BE  3E0F               	addlw	15
  3016  03BF  2446               	fcall	PL12	;call to abstracted procedure
  3017  03C0  120A  118A  272F   	fcall	_post_cmd
      +       120A  118A         
  3018                           
  3019                           ;lcd_22.c: 227: post_cmd(0x06,postion_x*8);
  3020  03C5  3006               	movlw	6
  3021  03C6  2430               	fcall	PL4	;call to abstracted procedure
  3022  03C7  00F4               	movwf	?_post_cmd+2
  3023  03C8  0879               	movf	??_DisplayChar+1,w
  3024  03C9  00F5               	movwf	?_post_cmd+3
  3025  03CA  120A  118A  272F   	fcall	_post_cmd
      +       120A  118A         
  3026                           
  3027                           ;lcd_22.c: 228: post_cmd(0x07,postion_y*16);
  3028  03CF  3007               	movlw	7
  3029  03D0  00F2               	movwf	?_post_cmd
  3030  03D1  01F3               	clrf	?_post_cmd+1
  3031  03D2  0877               	movf	DisplayChar@postion_y,w
  3032  03D3  2423               	fcall	PL3	;call to abstracted procedure
  3033  03D4  00F4               	movwf	?_post_cmd+2
  3034  03D5  0879               	movf	??_DisplayChar+1,w
  3035  03D6  00F5               	movwf	?_post_cmd+3
  3036  03D7  120A  118A  272F   	fcall	_post_cmd
      +       120A  118A         
  3037                           
  3038                           ;lcd_22.c: 230: {TRISA=0;RA1=0;};
  3039                           
  3040                           ;lcd_22.c: 231: post_data(0x0E);
  3041  03DC  120A  118A  27B6   	fcall	PL6	;call to abstracted procedure
      +       120A  118A         
  3042  03E1  120A  118A  2743   	fcall	_post_data
      +       120A  118A         
  3043                           
  3044                           ;lcd_22.c: 232: {TRISA=0;RA1=1;};
  3045  03E6  1683               	bsf	3,5	;RP0=1, select bank1
  3046  03E7  0185               	clrf	5	;volatile
  3047  03E8  1283               	bcf	3,5	;RP0=0, select bank0
  3048  03E9  3022               	movlw	low (_ascii| (0+32768))
  3049  03EA  1485               	bsf	5,1
  3050                           
  3051                           ;lcd_22.c: 233: p=ascii;
  3052  03EB  00A1               	movwf	DisplayChar@p
  3053  03EC  3097               	movlw	high (_ascii| (0+32768))
  3054  03ED  00A2               	movwf	DisplayChar@p+1
  3055                           
  3056                           ;lcd_22.c: 234: p+=casc*16;
  3057  03EE  0820               	movf	DisplayChar@casc,w
  3058  03EF  2423               	fcall	PL3	;call to abstracted procedure
  3059  03F0  07A1               	addwf	DisplayChar@p,f
  3060  03F1  1803               	skipnc
  3061  03F2  0AA2               	incf	DisplayChar@p+1,f
  3062  03F3  0879               	movf	??_DisplayChar+1,w
  3063  03F4  07A2               	addwf	DisplayChar@p+1,f
  3064                           
  3065                           ;lcd_22.c: 235: for(j=0;j<16;j++)
  3066  03F5  01A5               	clrf	DisplayChar@j
  3067  03F6                     l3318:	
  3068                           
  3069                           ;lcd_22.c: 236: {
  3070                           ;lcd_22.c: 237: b=*(p+j);
  3071  03F6  0825               	movf	DisplayChar@j,w
  3072  03F7  0721               	addwf	DisplayChar@p,w
  3073  03F8  0084               	movwf	4
  3074  03F9  0822               	movf	DisplayChar@p+1,w
  3075  03FA  1803               	skipnc
  3076  03FB  0A22               	incf	DisplayChar@p+1,w
  3077  03FC  00FF               	movwf	127
  3078  03FD  160A  118A  2700   	fcall	stringtab
      +       120A  118A         
  3079  0402  00A3               	movwf	DisplayChar@b
  3080                           
  3081                           ;lcd_22.c: 238: for(i=0;i<8;i++)
  3082  0403  01A4               	clrf	DisplayChar@i
  3083  0404                     l1452:	
  3084                           
  3085                           ;lcd_22.c: 239: {
  3086                           ;lcd_22.c: 240: if(b&0x80)
  3087  0404  1FA3               	btfss	DisplayChar@b,7
  3088  0405  2C09               	goto	l3328
  3089                           
  3090                           ;lcd_22.c: 241: {
  3091                           ;lcd_22.c: 242: post_data(0x0000);
  3092  0406  01F0               	clrf	?_post_data
  3093  0407  01F1               	clrf	?_post_data+1
  3094  0408  2C0D               	goto	L2
  3095  0409                     l3328:	
  3096                           ;lcd_22.c: 243: }
  3097                           
  3098                           
  3099                           ;lcd_22.c: 244: else
  3100                           ;lcd_22.c: 245: {
  3101                           ;lcd_22.c: 246: post_data(0xFFE0);
  3102  0409  30E0               	movlw	224
  3103  040A  00F0               	movwf	?_post_data
  3104  040B  30FF               	movlw	255
  3105  040C  00F1               	movwf	?_post_data+1
  3106  040D                     L2:	
  3107  040D  120A  118A  2743   	fcall	_post_data
      +       120A  118A         
  3108  0412  3008               	movlw	8
  3109                           
  3110                           ;lcd_22.c: 247: }
  3111                           ;lcd_22.c: 248: b=b<<1;
  3112  0413  1003               	clrc
  3113  0414  0DA3               	rlf	DisplayChar@b,f
  3114  0415  0AA4               	incf	DisplayChar@i,f
  3115  0416  0224               	subwf	DisplayChar@i,w
  3116  0417  1C03               	skipc
  3117  0418  2C04               	goto	l1452
  3118  0419  3010               	movlw	16
  3119  041A  0AA5               	incf	DisplayChar@j,f
  3120  041B  0225               	subwf	DisplayChar@j,w
  3121  041C  1C03               	skipc
  3122  041D  2BF6               	goto	l3318
  3123                           
  3124                           ;lcd_22.c: 250: }
  3125                           ;lcd_22.c: 251: }
  3126                           ;lcd_22.c: 252: {TRISA=0;RA0=1;};
  3127  041E  1683               	bsf	3,5	;RP0=1, select bank1
  3128  041F  0185               	clrf	5	;volatile
  3129  0420  1283               	bcf	3,5	;RP0=0, select bank0
  3130  0421  1405               	bsf	5,0
  3131  0422  0008               	return
  3132  0423                     __end_of_DisplayChar:	
  3133  0423                     PL3:	
  3134  0423  00F8               	movwf	??_DisplayChar
  3135  0424  30F0               	movlw	240
  3136  0425  01F9               	clrf	??_DisplayChar+1
  3137  0426  0EF8               	swapf	??_DisplayChar,f
  3138  0427  0EF9               	swapf	??_DisplayChar+1,f
  3139  0428  05F9               	andwf	??_DisplayChar+1,f
  3140  0429  0878               	movf	??_DisplayChar,w
  3141  042A  390F               	andlw	15
  3142  042B  04F9               	iorwf	??_DisplayChar+1,f
  3143  042C  30F0               	movlw	240
  3144  042D  05F8               	andwf	??_DisplayChar,f
  3145  042E  0878               	movf	??_DisplayChar,w
  3146  042F  0008               	return
  3147  0430                     PL4:	
  3148  0430  00F2               	movwf	?_post_cmd
  3149  0431  01F3               	clrf	?_post_cmd+1
  3150  0432  0876               	movf	DisplayChar@postion_x,w
  3151  0433  00F8               	movwf	??_DisplayChar
  3152  0434  01F9               	clrf	??_DisplayChar+1
  3153  0435  1003               	clrc
  3154  0436  0DF8               	rlf	??_DisplayChar,f
  3155  0437  0DF9               	rlf	??_DisplayChar+1,f
  3156  0438  1003               	clrc
  3157  0439  0DF8               	rlf	??_DisplayChar,f
  3158  043A  0DF9               	rlf	??_DisplayChar+1,f
  3159  043B  1003               	clrc
  3160  043C  0DF8               	rlf	??_DisplayChar,f
  3161  043D  0DF9               	rlf	??_DisplayChar+1,f
  3162  043E  0878               	movf	??_DisplayChar,w
  3163  043F  0008               	return
  3164  0440                     PL8:	
  3165  0440  1683               	bsf	3,5	;RP0=1, select bank1
  3166  0441  0185               	clrf	5	;volatile
  3167  0442  1283               	bcf	3,5	;RP0=0, select bank0
  3168  0443  3008               	movlw	8
  3169  0444  1005               	bcf	5,0
  3170  0445  0008               	return
  3171  0446                     PL12:	
  3172  0446  00F4               	movwf	?_post_cmd+2
  3173  0447  0879               	movf	??_DisplayChar+1,w
  3174  0448  1803               	skipnc
  3175  0449  3E01               	addlw	1
  3176  044A  3E00               	addlw	0
  3177  044B  00F5               	movwf	?_post_cmd+3
  3178  044C  0008               	return
  3179                           
  3180                           	psect	text301
  3181  044D                     __ptext301:	
  3182 ;; =============== function _DisplayString ends ============
  3183                           
  3184                           
  3185 ;; *************** function _DisplayChar_Reverse *****************
  3186 ;; Defined at:
  3187 ;;		line 256 in file "C:\Users\Work\Desktop\zjpack\program\PIC\test\lcd22\pic_lcd22_show\lcd_22.c"
  3188 ;; Parameters:    Size  Location     Type
  3189 ;;  casc            1    wreg     unsigned char 
  3190 ;;  postion_x       1    6[COMMON] unsigned char 
  3191 ;;  postion_y       1    7[COMMON] unsigned char 
  3192 ;; Auto vars:     Size  Location     Type
  3193 ;;  casc            1    0[BANK0 ] unsigned char 
  3194 ;;  p               2    1[BANK0 ] PTR unsigned char 
  3195 ;;		 -> ascii(2048), 
  3196 ;;  j               1    5[BANK0 ] unsigned char 
  3197 ;;  i               1    4[BANK0 ] unsigned char 
  3198 ;;  b               1    3[BANK0 ] unsigned char 
  3199 ;; Return value:  Size  Location     Type
  3200 ;;		None               void
  3201 ;; Registers used:
  3202 ;;		wreg, fsr0l, fsr0h, status,2, status,0, btemp+1, pclath, cstack
  3203 ;; Tracked objects:
  3204 ;;		On entry : 60/0
  3205 ;;		On exit  : 60/0
  3206 ;;		Unchanged: FFE9F/0
  3207 ;; Data sizes:     COMMON   BANK0   BANK1   BANK3   BANK2
  3208 ;;      Params:         2       0       0       0       0
  3209 ;;      Locals:         0       6       0       0       0
  3210 ;;      Temps:          2       0       0       0       0
  3211 ;;      Totals:         4       6       0       0       0
  3212 ;;Total ram usage:       10 bytes
  3213 ;; Hardware stack levels used:    1
  3214 ;; Hardware stack levels required when called:    2
  3215 ;; This function calls:
  3216 ;;		_post_cmd
  3217 ;;		_post_data
  3218 ;; This function is called by:
  3219 ;;		_DisplayString
  3220 ;; This function uses a non-reentrant model
  3221 ;;
  3222  044D                     _DisplayChar_Reverse:	
  3223                           
  3224                           ; Regs used in _DisplayChar_Reverse: [wreg-fsr0h+status,2+status,0+btemp+1+pclath+cstack]
  3225                           ;DisplayChar_Reverse@casc stored from wreg
  3226  044D  00A0               	movwf	DisplayChar_Reverse@casc
  3227                           
  3228                           ;lcd_22.c: 257: u8 i,j,b;
  3229                           ;lcd_22.c: 258: u8 *p;
  3230                           ;lcd_22.c: 260: {TRISA=0;RA0=0;};
  3231  044E  120A  118A  2440   	fcall	PL8	;call to abstracted procedure
      +       120A  118A         
  3232                           
  3233                           ;lcd_22.c: 261: post_cmd(0x08,postion_x*8);
  3234  0453  27A6  120A  118A   	fcall	PL5	;call to abstracted procedure
  3235  0456  00F4               	movwf	?_post_cmd+2
  3236  0457  0879               	movf	??_DisplayChar_Reverse+1,w
  3237  0458  00F5               	movwf	?_post_cmd+3
  3238  0459  272F  120A  118A   	fcall	_post_cmd
  3239                           
  3240                           ;lcd_22.c: 262: post_cmd(0x0a,postion_y*16);
  3241  045C  300A               	movlw	10
  3242  045D  00F2               	movwf	?_post_cmd
  3243  045E  01F3               	clrf	?_post_cmd+1
  3244  045F  0877               	movf	DisplayChar_Reverse@postion_y,w
  3245  0460  2799  120A  118A   	fcall	PL2	;call to abstracted procedure
  3246  0463  00F4               	movwf	?_post_cmd+2
  3247  0464  0879               	movf	??_DisplayChar_Reverse+1,w
  3248  0465  00F5               	movwf	?_post_cmd+3
  3249  0466  272F  120A  118A   	fcall	_post_cmd
  3250                           
  3251                           ;lcd_22.c: 263: post_cmd(0x09,postion_x*8+7);
  3252  0469  3009               	movlw	9
  3253  046A  27A6  120A  118A   	fcall	PL5	;call to abstracted procedure
  3254  046D  3E07               	addlw	7
  3255  046E  27D5  120A  118A   	fcall	PL11	;call to abstracted procedure
  3256  0471  272F  120A  118A   	fcall	_post_cmd
  3257                           
  3258                           ;lcd_22.c: 264: post_cmd(0x0b,postion_y*16+15);
  3259  0474  300B               	movlw	11
  3260  0475  00F2               	movwf	?_post_cmd
  3261  0476  01F3               	clrf	?_post_cmd+1
  3262  0477  0877               	movf	DisplayChar_Reverse@postion_y,w
  3263  0478  2799  120A  118A   	fcall	PL2	;call to abstracted procedure
  3264  047B  3E0F               	addlw	15
  3265  047C  27D5  120A  118A   	fcall	PL11	;call to abstracted procedure
  3266  047F  272F  120A  118A   	fcall	_post_cmd
  3267                           
  3268                           ;lcd_22.c: 266: post_cmd(0x06,postion_x*8);
  3269  0482  3006               	movlw	6
  3270  0483  27A6  120A  118A   	fcall	PL5	;call to abstracted procedure
  3271  0486  00F4               	movwf	?_post_cmd+2
  3272  0487  0879               	movf	??_DisplayChar_Reverse+1,w
  3273  0488  00F5               	movwf	?_post_cmd+3
  3274  0489  272F  120A  118A   	fcall	_post_cmd
  3275                           
  3276                           ;lcd_22.c: 267: post_cmd(0x07,postion_y*16);
  3277  048C  3007               	movlw	7
  3278  048D  00F2               	movwf	?_post_cmd
  3279  048E  01F3               	clrf	?_post_cmd+1
  3280  048F  0877               	movf	DisplayChar_Reverse@postion_y,w
  3281  0490  2799  120A  118A   	fcall	PL2	;call to abstracted procedure
  3282  0493  00F4               	movwf	?_post_cmd+2
  3283  0494  0879               	movf	??_DisplayChar_Reverse+1,w
  3284  0495  00F5               	movwf	?_post_cmd+3
  3285  0496  272F  120A  118A   	fcall	_post_cmd
  3286                           
  3287                           ;lcd_22.c: 269: {TRISA=0;RA1=0;};
  3288                           
  3289                           ;lcd_22.c: 270: post_data(0x0E);
  3290  0499  27B6  120A  118A   	fcall	PL6	;call to abstracted procedure
  3291  049C  2743  120A  118A   	fcall	_post_data
  3292                           
  3293                           ;lcd_22.c: 271: {TRISA=0;RA1=1;};
  3294  049F  1683               	bsf	3,5	;RP0=1, select bank1
  3295  04A0  0185               	clrf	5	;volatile
  3296  04A1  1283               	bcf	3,5	;RP0=0, select bank0
  3297  04A2  3022               	movlw	low (_ascii| (0+32768))
  3298  04A3  1485               	bsf	5,1
  3299                           
  3300                           ;lcd_22.c: 272: p=ascii;
  3301  04A4  00A1               	movwf	DisplayChar_Reverse@p
  3302  04A5  3097               	movlw	high (_ascii| (0+32768))
  3303  04A6  00A2               	movwf	DisplayChar_Reverse@p+1
  3304                           
  3305                           ;lcd_22.c: 273: p+=casc*16;
  3306  04A7  0820               	movf	DisplayChar_Reverse@casc,w
  3307  04A8  2799               	fcall	PL2	;call to abstracted procedure
  3308  04A9  07A1               	addwf	DisplayChar_Reverse@p,f
  3309  04AA  1803               	skipnc
  3310  04AB  0AA2               	incf	DisplayChar_Reverse@p+1,f
  3311  04AC  0879               	movf	??_DisplayChar_Reverse+1,w
  3312  04AD  07A2               	addwf	DisplayChar_Reverse@p+1,f
  3313                           
  3314                           ;lcd_22.c: 274: for(j=16;j>0;j--)
  3315  04AE  3010               	movlw	16
  3316  04AF  00A5               	movwf	DisplayChar_Reverse@j
  3317  04B0                     l3378:	
  3318                           
  3319                           ;lcd_22.c: 275: {
  3320                           ;lcd_22.c: 276: b=*(p+j-1);
  3321  04B0  0825               	movf	DisplayChar_Reverse@j,w
  3322  04B1  0721               	addwf	DisplayChar_Reverse@p,w
  3323  04B2  00F8               	movwf	??_DisplayChar_Reverse
  3324  04B3  3000               	movlw	0
  3325  04B4  1803               	skipnc
  3326  04B5  3001               	movlw	1
  3327  04B6  0722               	addwf	DisplayChar_Reverse@p+1,w
  3328  04B7  00F9               	movwf	??_DisplayChar_Reverse+1
  3329  04B8  30FF               	movlw	255
  3330  04B9  0778               	addwf	??_DisplayChar_Reverse,w
  3331  04BA  0084               	movwf	4
  3332  04BB  30FF               	movlw	255
  3333  04BC  1803               	skipnc
  3334  04BD  3000               	movlw	256
  3335  04BE  0779               	addwf	??_DisplayChar_Reverse+1,w
  3336  04BF  00FF               	movwf	127
  3337  04C0  160A  118A  2700   	fcall	stringtab
      +       120A  118A         
  3338  04C5  00A3               	movwf	DisplayChar_Reverse@b
  3339                           
  3340                           ;lcd_22.c: 277: for(i=0;i<8;i++)
  3341  04C6  01A4               	clrf	DisplayChar_Reverse@i
  3342  04C7                     l1461:	
  3343                           
  3344                           ;lcd_22.c: 278: {
  3345                           ;lcd_22.c: 279: if(b&0x01)
  3346  04C7  1C23               	btfss	DisplayChar_Reverse@b,0
  3347  04C8  2CCC               	goto	l3388
  3348                           
  3349                           ;lcd_22.c: 280: {
  3350                           ;lcd_22.c: 281: post_data(0x0000);
  3351  04C9  01F0               	clrf	?_post_data
  3352  04CA  01F1               	clrf	?_post_data+1
  3353  04CB  2CD0               	goto	L1
  3354  04CC                     l3388:	
  3355                           ;lcd_22.c: 282: }
  3356                           
  3357                           
  3358                           ;lcd_22.c: 283: else
  3359                           ;lcd_22.c: 284: {
  3360                           ;lcd_22.c: 285: post_data(0xFFE0);
  3361  04CC  30E0               	movlw	224
  3362  04CD  00F0               	movwf	?_post_data
  3363  04CE  30FF               	movlw	255
  3364  04CF  00F1               	movwf	?_post_data+1
  3365  04D0                     L1:	
  3366  04D0  2743  120A  118A   	fcall	_post_data
  3367  04D3  3008               	movlw	8
  3368                           
  3369                           ;lcd_22.c: 286: }
  3370                           ;lcd_22.c: 287: b=b>>1;
  3371  04D4  1003               	clrc
  3372  04D5  0CA3               	rrf	DisplayChar_Reverse@b,f
  3373  04D6  0AA4               	incf	DisplayChar_Reverse@i,f
  3374  04D7  0224               	subwf	DisplayChar_Reverse@i,w
  3375  04D8  1C03               	skipc
  3376  04D9  2CC7               	goto	l1461
  3377  04DA  0BA5               	decfsz	DisplayChar_Reverse@j,f
  3378  04DB  2CB0               	goto	l3378
  3379                           
  3380                           ;lcd_22.c: 289: }
  3381                           ;lcd_22.c: 290: }
  3382                           ;lcd_22.c: 291: {TRISA=0;RA0=1;};
  3383  04DC  1683               	bsf	3,5	;RP0=1, select bank1
  3384  04DD  0185               	clrf	5	;volatile
  3385  04DE  1283               	bcf	3,5	;RP0=0, select bank0
  3386  04DF  1405               	bsf	5,0
  3387  04E0  0008               	return
  3388  04E1                     __end_of_DisplayChar_Reverse:	
  3389  04E1                     __ptext303:	
  3390 ;; =============== function _DisplayChar ends ============
  3391                           
  3392                           
  3393 ;; *************** function _LCD_test *****************
  3394 ;; Defined at:
  3395 ;;		line 159 in file "C:\Users\Work\Desktop\zjpack\program\PIC\test\lcd22\pic_lcd22_show\lcd_22.c"
  3396 ;; Parameters:    Size  Location     Type
  3397 ;;		None
  3398 ;; Auto vars:     Size  Location     Type
  3399 ;;  num             2    9[COMMON] unsigned short 
  3400 ;;  temp            2    6[COMMON] unsigned short 
  3401 ;;  n               1   11[COMMON] unsigned char 
  3402 ;;  i               1    8[COMMON] unsigned char 
  3403 ;; Return value:  Size  Location     Type
  3404 ;;		None               void
  3405 ;; Registers used:
  3406 ;;		wreg, fsr0l, fsr0h, status,2, status,0, btemp+1, pclath, cstack
  3407 ;; Tracked objects:
  3408 ;;		On entry : 17F/0
  3409 ;;		On exit  : 7F/0
  3410 ;;		Unchanged: FFE80/0
  3411 ;; Data sizes:     COMMON   BANK0   BANK1   BANK3   BANK2
  3412 ;;      Params:         0       0       0       0       0
  3413 ;;      Locals:         6       0       0       0       0
  3414 ;;      Temps:          0       0       0       0       0
  3415 ;;      Totals:         6       0       0       0       0
  3416 ;;Total ram usage:        6 bytes
  3417 ;; Hardware stack levels used:    1
  3418 ;; Hardware stack levels required when called:    2
  3419 ;; This function calls:
  3420 ;;		_post_cmd
  3421 ;;		_post_data
  3422 ;;		_delay_ms
  3423 ;; This function is called by:
  3424 ;;		_main
  3425 ;; This function uses a non-reentrant model
  3426 ;;
  3427  04E1                     _LCD_test:	
  3428                           
  3429                           ;lcd_22.c: 160: u16 temp,num;
  3430                           ;lcd_22.c: 161: u8 n,i;
  3431                           ;lcd_22.c: 163: {TRISA=0;RA0=0;};
  3432                           
  3433                           ; Regs used in _LCD_test: [wreg-fsr0h+status,2+status,0+btemp+1+pclath+cstack]
  3434  04E1  120A  118A  2440   	fcall	PL8	;call to abstracted procedure
      +       120A  118A         
  3435                           
  3436                           ;lcd_22.c: 165: post_cmd(0x08,0x00);
  3437  04E6  00F2               	movwf	?_post_cmd
  3438  04E7  01F3               	clrf	?_post_cmd+1
  3439  04E8  01F4               	clrf	?_post_cmd+2
  3440  04E9  01F5               	clrf	?_post_cmd+3
  3441  04EA  272F  120A  118A   	fcall	_post_cmd
  3442                           
  3443                           ;lcd_22.c: 166: post_cmd(0x0a,0x0000);
  3444  04ED  27DC  120A  118A   	fcall	PL13	;call to abstracted procedure
  3445  04F0  272F  120A  118A   	fcall	_post_cmd
  3446                           
  3447                           ;lcd_22.c: 167: post_cmd(0x09,0xEF);
  3448  04F3  27C6  120A  118A   	fcall	PL9	;call to abstracted procedure
  3449  04F6  272F  120A  118A   	fcall	_post_cmd
  3450                           
  3451                           ;lcd_22.c: 168: post_cmd(0x0b,0x013F);
  3452  04F9  27BE  120A  118A   	fcall	PL7	;call to abstracted procedure
  3453  04FC  272F  120A  118A   	fcall	_post_cmd
  3454                           
  3455                           ;lcd_22.c: 170: post_cmd(0x06,0x0000);
  3456  04FF  27F4  120A  118A   	fcall	PL17	;call to abstracted procedure
  3457  0502  272F  120A  118A   	fcall	_post_cmd
  3458                           
  3459                           ;lcd_22.c: 171: post_cmd(0x07,0x0000);
  3460  0505  27FA  120A  118A   	fcall	PL18	;call to abstracted procedure
  3461  0508  272F  120A  118A   	fcall	_post_cmd
  3462                           
  3463                           ;lcd_22.c: 173: {TRISA=0;RA1=0;};
  3464                           
  3465                           ;lcd_22.c: 174: post_data(0x0E);
  3466  050B  27B6  120A  118A   	fcall	PL6	;call to abstracted procedure
  3467  050E  2743  120A  118A   	fcall	_post_data
  3468                           
  3469                           ;lcd_22.c: 175: {TRISA=0;RA1=1;};
  3470  0511  1683               	bsf	3,5	;RP0=1, select bank1
  3471  0512  0185               	clrf	5	;volatile
  3472  0513  1283               	bcf	3,5	;RP0=0, select bank0
  3473  0514  1485               	bsf	5,1
  3474                           
  3475                           ;lcd_22.c: 176: for(n=0;n<8;n++)
  3476  0515  01FB               	clrf	LCD_test@n
  3477                           
  3478                           ;lcd_22.c: 177: {
  3479                           ;lcd_22.c: 178: temp=colorfol[n];
  3480  0516  1003               	clrc
  3481  0517                     L3:	
  3482  0517  27CD               	fcall	PL10	;call to abstracted procedure
  3483  0518  160A  118A  2700   	fcall	stringtab
      +       120A  118A         
  3484  051D  00F6               	movwf	LCD_test@temp
  3485  051E  160A  118A  2700   	fcall	stringtab
      +       120A  118A         
  3486  0523  00F7               	movwf	LCD_test@temp+1
  3487                           
  3488                           ;lcd_22.c: 179: for(num=40*240;num>0;num--)
  3489  0524  3080               	movlw	128
  3490  0525  00F9               	movwf	LCD_test@num
  3491  0526  3025               	movlw	37
  3492  0527  00FA               	movwf	LCD_test@num+1
  3493  0528                     l3222:	
  3494                           
  3495                           ;lcd_22.c: 180: {
  3496                           ;lcd_22.c: 181: post_data(temp);
  3497  0528  0877               	movf	LCD_test@temp+1,w
  3498  0529  00F1               	movwf	?_post_data+1
  3499  052A  0876               	movf	LCD_test@temp,w
  3500  052B  00F0               	movwf	?_post_data
  3501  052C  2743  120A  118A   	fcall	_post_data
  3502  052F  3001               	movlw	1
  3503  0530  02F9               	subwf	LCD_test@num,f
  3504  0531  3000               	movlw	0
  3505  0532  1C03               	skipc
  3506  0533  03FA               	decf	LCD_test@num+1,f
  3507  0534  02FA               	subwf	LCD_test@num+1,f
  3508  0535  087A               	movf	LCD_test@num+1,w
  3509  0536  0479               	iorwf	LCD_test@num,w
  3510  0537  1D03               	skipz
  3511  0538  2D28               	goto	l3222
  3512  0539  3008               	movlw	8
  3513  053A  0AFB               	incf	LCD_test@n,f
  3514  053B  027B               	subwf	LCD_test@n,w
  3515  053C  1C03               	skipc
  3516  053D  2D17               	goto	L3
  3517                           
  3518                           ;lcd_22.c: 182: }
  3519                           ;lcd_22.c: 183: }
  3520                           ;lcd_22.c: 184: delay_ms(500);
  3521  053E  30F4               	movlw	244
  3522  053F  00F0               	movwf	?_delay_ms
  3523  0540  3001               	movlw	1
  3524  0541  00F1               	movwf	?_delay_ms+1
  3525  0542  274E  120A  118A   	fcall	_delay_ms
  3526                           
  3527                           ;lcd_22.c: 185: for(n=0;n<3;n++)
  3528  0545  01FB               	clrf	LCD_test@n
  3529  0546                     l3240:	
  3530                           
  3531                           ;lcd_22.c: 186: {
  3532                           ;lcd_22.c: 187: post_cmd(0x08,0x00);
  3533  0546  27E8  120A  118A   	fcall	PL15	;call to abstracted procedure
  3534  0549  272F  120A  118A   	fcall	_post_cmd
  3535                           
  3536                           ;lcd_22.c: 188: post_cmd(0x0a,0x0000);
  3537  054C  27DC  120A  118A   	fcall	PL13	;call to abstracted procedure
  3538  054F  272F  120A  118A   	fcall	_post_cmd
  3539                           
  3540                           ;lcd_22.c: 189: post_cmd(0x09,0xEF);
  3541  0552  27C6  120A  118A   	fcall	PL9	;call to abstracted procedure
  3542  0555  272F  120A  118A   	fcall	_post_cmd
  3543                           
  3544                           ;lcd_22.c: 190: post_cmd(0x0b,0x013F);
  3545  0558  27BE  120A  118A   	fcall	PL7	;call to abstracted procedure
  3546  055B  272F  120A  118A   	fcall	_post_cmd
  3547                           
  3548                           ;lcd_22.c: 192: post_cmd(0x06,0x0000);
  3549  055E  27F4  120A  118A   	fcall	PL17	;call to abstracted procedure
  3550  0561  272F  120A  118A   	fcall	_post_cmd
  3551                           
  3552                           ;lcd_22.c: 193: post_cmd(0x07,0x0000);
  3553  0564  27FA  120A  118A   	fcall	PL18	;call to abstracted procedure
  3554  0567  272F  120A  118A   	fcall	_post_cmd
  3555                           
  3556                           ;lcd_22.c: 195: {TRISA=0;RA1=0;};
  3557                           
  3558                           ;lcd_22.c: 196: post_data(0x0E);
  3559  056A  27B6  120A  118A   	fcall	PL6	;call to abstracted procedure
  3560  056D  2743  120A  118A   	fcall	_post_data
  3561                           
  3562                           ;lcd_22.c: 197: {TRISA=0;RA1=1;};
  3563  0570  1683               	bsf	3,5	;RP0=1, select bank1
  3564  0571  0185               	clrf	5	;volatile
  3565  0572  1283               	bcf	3,5	;RP0=0, select bank0
  3566  0573  1485               	bsf	5,1
  3567                           
  3568                           ;lcd_22.c: 198: temp=colorfol[n];
  3569  0574  1003               	clrc
  3570  0575  27CD               	fcall	PL10	;call to abstracted procedure
  3571  0576  160A  118A  2700   	fcall	stringtab
      +       120A  118A         
  3572  057B  00F6               	movwf	LCD_test@temp
  3573  057C  160A  118A  2700   	fcall	stringtab
      +       120A  118A         
  3574  0581  00F7               	movwf	LCD_test@temp+1
  3575                           
  3576                           ;lcd_22.c: 199: for(i=0;i<240;i++)
  3577  0582  01F8               	clrf	LCD_test@i
  3578  0583                     l3258:	
  3579                           
  3580                           ;lcd_22.c: 200: {
  3581                           ;lcd_22.c: 201: for(num=0;num<320;num++)
  3582  0583  01F9               	clrf	LCD_test@num
  3583  0584  01FA               	clrf	LCD_test@num+1
  3584  0585                     l3264:	
  3585                           
  3586                           ;lcd_22.c: 202: {
  3587                           ;lcd_22.c: 203: post_data(temp);
  3588  0585  0877               	movf	LCD_test@temp+1,w
  3589  0586  00F1               	movwf	?_post_data+1
  3590  0587  0876               	movf	LCD_test@temp,w
  3591  0588  00F0               	movwf	?_post_data
  3592  0589  2743  120A  118A   	fcall	_post_data
  3593  058C  0AF9               	incf	LCD_test@num,f
  3594  058D  1903               	skipnz
  3595  058E  0AFA               	incf	LCD_test@num+1,f
  3596  058F  3001               	movlw	1
  3597  0590  027A               	subwf	LCD_test@num+1,w
  3598  0591  3040               	movlw	64
  3599  0592  1903               	skipnz
  3600  0593  0279               	subwf	LCD_test@num,w
  3601  0594  1C03               	skipc
  3602  0595  2D85               	goto	l3264
  3603  0596  30F0               	movlw	240
  3604  0597  0AF8               	incf	LCD_test@i,f
  3605  0598  0278               	subwf	LCD_test@i,w
  3606  0599  1C03               	skipc
  3607  059A  2D83               	goto	l3258
  3608                           
  3609                           ;lcd_22.c: 204: }
  3610                           ;lcd_22.c: 205: }
  3611                           ;lcd_22.c: 206: delay_ms(500);
  3612  059B  30F4               	movlw	244
  3613  059C  00F0               	movwf	?_delay_ms
  3614  059D  3001               	movlw	1
  3615  059E  00F1               	movwf	?_delay_ms+1
  3616  059F  274E  120A  118A   	fcall	_delay_ms
  3617  05A2  3003               	movlw	3
  3618  05A3  0AFB               	incf	LCD_test@n,f
  3619  05A4  027B               	subwf	LCD_test@n,w
  3620  05A5  1C03               	skipc
  3621  05A6  2D46               	goto	l3240
  3622                           
  3623                           ;lcd_22.c: 207: }
  3624                           ;lcd_22.c: 208: {TRISA=0;RA0=1;};
  3625  05A7  1683               	bsf	3,5	;RP0=1, select bank1
  3626  05A8  0185               	clrf	5	;volatile
  3627  05A9  1283               	bcf	3,5	;RP0=0, select bank0
  3628  05AA  1405               	bsf	5,0
  3629  05AB  0008               	return
  3630  05AC                     __end_of_LCD_test:	
  3631  05AC                     __ptext304:	
  3632 ;; =============== function _LCD_test ends ============
  3633                           
  3634                           
  3635 ;; *************** function _init_lcd *****************
  3636 ;; Defined at:
  3637 ;;		line 66 in file "C:\Users\Work\Desktop\zjpack\program\PIC\test\lcd22\pic_lcd22_show\lcd_22.c"
  3638 ;; Parameters:    Size  Location     Type
  3639 ;;		None
  3640 ;; Auto vars:     Size  Location     Type
  3641 ;;  y               2    8[COMMON] unsigned short 
  3642 ;;  x               2    6[COMMON] unsigned short 
  3643 ;; Return value:  Size  Location     Type
  3644 ;;		None               void
  3645 ;; Registers used:
  3646 ;;		wreg, status,2, status,0, pclath, cstack
  3647 ;; Tracked objects:
  3648 ;;		On entry : 17F/0
  3649 ;;		On exit  : 17F/0
  3650 ;;		Unchanged: FFE80/0
  3651 ;; Data sizes:     COMMON   BANK0   BANK1   BANK3   BANK2
  3652 ;;      Params:         0       0       0       0       0
  3653 ;;      Locals:         4       0       0       0       0
  3654 ;;      Temps:          0       0       0       0       0
  3655 ;;      Totals:         4       0       0       0       0
  3656 ;;Total ram usage:        4 bytes
  3657 ;; Hardware stack levels used:    1
  3658 ;; Hardware stack levels required when called:    2
  3659 ;; This function calls:
  3660 ;;		_init_lcd_spi
  3661 ;;		_lcd_rst
  3662 ;;		_post_cmd
  3663 ;;		_post_data
  3664 ;; This function is called by:
  3665 ;;		_main
  3666 ;; This function uses a non-reentrant model
  3667 ;;
  3668  05AC                     _init_lcd:	
  3669                           
  3670                           ;lcd_22.c: 67: u16 x, y;
  3671                           ;lcd_22.c: 72: init_lcd_spi();
  3672                           
  3673                           ; Regs used in _init_lcd: [wreg+status,2+status,0+pclath+cstack]
  3674  05AC  2765  120A  118A   	fcall	_init_lcd_spi
  3675                           
  3676                           ;lcd_22.c: 73: {TRISA=0;RA0=0;};
  3677  05AF  1683               	bsf	3,5	;RP0=1, select bank1
  3678  05B0  0185               	clrf	5	;volatile
  3679  05B1  1283               	bcf	3,5	;RP0=0, select bank0
  3680  05B2  1005               	bcf	5,0
  3681                           
  3682                           ;lcd_22.c: 74: lcd_rst();
  3683  05B3  2770  120A  118A   	fcall	_lcd_rst
  3684                           
  3685                           ;lcd_22.c: 76: post_cmd(0x0003,0x0001);
  3686  05B6  3003               	movlw	3
  3687  05B7  27E2  120A  118A   	fcall	PL14	;call to abstracted procedure
  3688  05BA  272F  120A  118A   	fcall	_post_cmd
  3689                           
  3690                           ;lcd_22.c: 79: post_cmd(0x003A,0x0001);
  3691  05BD  303A               	movlw	58
  3692  05BE  27E2  120A  118A   	fcall	PL14	;call to abstracted procedure
  3693  05C1  272F  120A  118A   	fcall	_post_cmd
  3694                           
  3695                           ;lcd_22.c: 82: post_cmd(0x0024,0x007B);
  3696  05C4  3024               	movlw	36
  3697  05C5  00F2               	movwf	?_post_cmd
  3698  05C6  307B               	movlw	123
  3699  05C7  01F3               	clrf	?_post_cmd+1
  3700  05C8  00F4               	movwf	?_post_cmd+2
  3701  05C9  01F5               	clrf	?_post_cmd+3
  3702  05CA  272F  120A  118A   	fcall	_post_cmd
  3703                           
  3704                           ;lcd_22.c: 83: post_cmd(0x0025,0x003B);
  3705  05CD  3025               	movlw	37
  3706  05CE  00F2               	movwf	?_post_cmd
  3707  05CF  303B               	movlw	59
  3708  05D0  01F3               	clrf	?_post_cmd+1
  3709  05D1  00F4               	movwf	?_post_cmd+2
  3710  05D2  01F5               	clrf	?_post_cmd+3
  3711  05D3  272F  120A  118A   	fcall	_post_cmd
  3712                           
  3713                           ;lcd_22.c: 84: post_cmd(0x0026,0x0034);
  3714  05D6  3026               	movlw	38
  3715  05D7  00F2               	movwf	?_post_cmd
  3716  05D8  3034               	movlw	52
  3717  05D9  01F3               	clrf	?_post_cmd+1
  3718  05DA  00F4               	movwf	?_post_cmd+2
  3719  05DB  01F5               	clrf	?_post_cmd+3
  3720  05DC  272F  120A  118A   	fcall	_post_cmd
  3721                           
  3722                           ;lcd_22.c: 85: post_cmd(0x0027,0x0004);
  3723  05DF  3027               	movlw	39
  3724  05E0  00F2               	movwf	?_post_cmd
  3725  05E1  3004               	movlw	4
  3726  05E2  01F3               	clrf	?_post_cmd+1
  3727  05E3  00F4               	movwf	?_post_cmd+2
  3728  05E4  01F5               	clrf	?_post_cmd+3
  3729  05E5  272F  120A  118A   	fcall	_post_cmd
  3730                           
  3731                           ;lcd_22.c: 86: post_cmd(0x0052,0x0025);
  3732  05E8  3052               	movlw	82
  3733  05E9  00F2               	movwf	?_post_cmd
  3734  05EA  3025               	movlw	37
  3735  05EB  01F3               	clrf	?_post_cmd+1
  3736  05EC  00F4               	movwf	?_post_cmd+2
  3737  05ED  01F5               	clrf	?_post_cmd+3
  3738  05EE  272F  120A  118A   	fcall	_post_cmd
  3739                           
  3740                           ;lcd_22.c: 87: post_cmd(0x0053,0x0033);
  3741  05F1  3053               	movlw	83
  3742  05F2  00F2               	movwf	?_post_cmd
  3743  05F3  3033               	movlw	51
  3744  05F4  01F3               	clrf	?_post_cmd+1
  3745  05F5  00F4               	movwf	?_post_cmd+2
  3746  05F6  01F5               	clrf	?_post_cmd+3
  3747  05F7  272F  120A  118A   	fcall	_post_cmd
  3748                           
  3749                           ;lcd_22.c: 88: post_cmd(0x0061,0x001C);
  3750  05FA  3061               	movlw	97
  3751  05FB  00F2               	movwf	?_post_cmd
  3752  05FC  301C               	movlw	28
  3753  05FD  01F3               	clrf	?_post_cmd+1
  3754  05FE  00F4               	movwf	?_post_cmd+2
  3755  05FF  01F5               	clrf	?_post_cmd+3
  3756  0600  272F  120A  118A   	fcall	_post_cmd
  3757                           
  3758                           ;lcd_22.c: 89: post_cmd(0x0062,0x002C);
  3759  0603  3062               	movlw	98
  3760  0604  00F2               	movwf	?_post_cmd
  3761  0605  302C               	movlw	44
  3762  0606  01F3               	clrf	?_post_cmd+1
  3763  0607  00F4               	movwf	?_post_cmd+2
  3764  0608  01F5               	clrf	?_post_cmd+3
  3765  0609  272F  120A  118A   	fcall	_post_cmd
  3766                           
  3767                           ;lcd_22.c: 90: post_cmd(0x0063,0x0022);
  3768  060C  3063               	movlw	99
  3769  060D  00F2               	movwf	?_post_cmd
  3770  060E  3022               	movlw	34
  3771  060F  01F3               	clrf	?_post_cmd+1
  3772  0610  00F4               	movwf	?_post_cmd+2
  3773  0611  01F5               	clrf	?_post_cmd+3
  3774  0612  272F  120A  118A   	fcall	_post_cmd
  3775                           
  3776                           ;lcd_22.c: 91: post_cmd(0x0064,0x0027);
  3777  0615  3064               	movlw	100
  3778  0616  00F2               	movwf	?_post_cmd
  3779  0617  3027               	movlw	39
  3780  0618  01F3               	clrf	?_post_cmd+1
  3781  0619  00F4               	movwf	?_post_cmd+2
  3782  061A  01F5               	clrf	?_post_cmd+3
  3783  061B  272F  120A  118A   	fcall	_post_cmd
  3784                           
  3785                           ;lcd_22.c: 92: post_cmd(0x0065,0x0014);
  3786  061E  3065               	movlw	101
  3787  061F  00F2               	movwf	?_post_cmd
  3788  0620  3014               	movlw	20
  3789  0621  01F3               	clrf	?_post_cmd+1
  3790  0622  00F4               	movwf	?_post_cmd+2
  3791  0623  01F5               	clrf	?_post_cmd+3
  3792  0624  272F  120A  118A   	fcall	_post_cmd
  3793                           
  3794                           ;lcd_22.c: 93: post_cmd(0x0066,0x0010);
  3795  0627  3066               	movlw	102
  3796  0628  27EE  120A  118A   	fcall	PL16	;call to abstracted procedure
  3797  062B  272F  120A  118A   	fcall	_post_cmd
  3798                           
  3799                           ;lcd_22.c: 96: post_cmd(0x002E,0x002D);
  3800  062E  302E               	movlw	46
  3801  062F  00F2               	movwf	?_post_cmd
  3802  0630  302D               	movlw	45
  3803  0631  01F3               	clrf	?_post_cmd+1
  3804  0632  00F4               	movwf	?_post_cmd+2
  3805  0633  01F5               	clrf	?_post_cmd+3
  3806  0634  272F  120A  118A   	fcall	_post_cmd
  3807                           
  3808                           ;lcd_22.c: 99: post_cmd(0x0019,0x0000);
  3809  0637  3019               	movlw	25
  3810  0638  00F2               	movwf	?_post_cmd
  3811  0639  01F3               	clrf	?_post_cmd+1
  3812  063A  01F4               	clrf	?_post_cmd+2
  3813  063B  01F5               	clrf	?_post_cmd+3
  3814  063C  272F  120A  118A   	fcall	_post_cmd
  3815                           
  3816                           ;lcd_22.c: 100: post_cmd(0x001A,0x1000);
  3817  063F  301A               	movlw	26
  3818  0640  00F2               	movwf	?_post_cmd
  3819  0641  3010               	movlw	16
  3820  0642  01F3               	clrf	?_post_cmd+1
  3821  0643  01F4               	clrf	?_post_cmd+2
  3822  0644  00F5               	movwf	?_post_cmd+3
  3823  0645  272F  120A  118A   	fcall	_post_cmd
  3824                           
  3825                           ;lcd_22.c: 101: post_cmd(0x001B,0x0023);
  3826  0648  301B               	movlw	27
  3827  0649  00F2               	movwf	?_post_cmd
  3828  064A  3023               	movlw	35
  3829  064B  01F3               	clrf	?_post_cmd+1
  3830  064C  00F4               	movwf	?_post_cmd+2
  3831  064D  01F5               	clrf	?_post_cmd+3
  3832  064E  272F  120A  118A   	fcall	_post_cmd
  3833                           
  3834                           ;lcd_22.c: 102: post_cmd(0x001C,0x0C01);
  3835  0651  301C               	movlw	28
  3836  0652  00F2               	movwf	?_post_cmd
  3837  0653  3001               	movlw	1
  3838  0654  01F3               	clrf	?_post_cmd+1
  3839  0655  00F4               	movwf	?_post_cmd+2
  3840  0656  300C               	movlw	12
  3841  0657  00F5               	movwf	?_post_cmd+3
  3842  0658  272F  120A  118A   	fcall	_post_cmd
  3843                           
  3844                           ;lcd_22.c: 103: post_cmd(0x001D,0x0000);
  3845  065B  301D               	movlw	29
  3846  065C  00F2               	movwf	?_post_cmd
  3847  065D  01F3               	clrf	?_post_cmd+1
  3848  065E  01F4               	clrf	?_post_cmd+2
  3849  065F  01F5               	clrf	?_post_cmd+3
  3850  0660  272F  120A  118A   	fcall	_post_cmd
  3851                           
  3852                           ;lcd_22.c: 104: post_cmd(0x001E,0x0009);
  3853  0663  301E               	movlw	30
  3854  0664  00F2               	movwf	?_post_cmd
  3855  0665  3009               	movlw	9
  3856  0666  01F3               	clrf	?_post_cmd+1
  3857  0667  00F4               	movwf	?_post_cmd+2
  3858  0668  01F5               	clrf	?_post_cmd+3
  3859  0669  272F  120A  118A   	fcall	_post_cmd
  3860                           
  3861                           ;lcd_22.c: 105: post_cmd(0x001F,0x0035);
  3862  066C  301F               	movlw	31
  3863  066D  00F2               	movwf	?_post_cmd
  3864  066E  3035               	movlw	53
  3865  066F  01F3               	clrf	?_post_cmd+1
  3866  0670  00F4               	movwf	?_post_cmd+2
  3867  0671  01F5               	clrf	?_post_cmd+3
  3868  0672  272F  120A  118A   	fcall	_post_cmd
  3869                           
  3870                           ;lcd_22.c: 106: post_cmd(0x0020,0x0015);
  3871  0675  3020               	movlw	32
  3872  0676  00F2               	movwf	?_post_cmd
  3873  0677  3015               	movlw	21
  3874  0678  01F3               	clrf	?_post_cmd+1
  3875  0679  00F4               	movwf	?_post_cmd+2
  3876  067A  01F5               	clrf	?_post_cmd+3
  3877  067B  272F  120A  118A   	fcall	_post_cmd
  3878                           
  3879                           ;lcd_22.c: 107: post_cmd(0x0018,0x1E7B);
  3880  067E  3018               	movlw	24
  3881  067F  00F2               	movwf	?_post_cmd
  3882  0680  307B               	movlw	123
  3883  0681  01F3               	clrf	?_post_cmd+1
  3884  0682  00F4               	movwf	?_post_cmd+2
  3885  0683  301E               	movlw	30
  3886  0684  00F5               	movwf	?_post_cmd+3
  3887  0685  272F  120A  118A   	fcall	_post_cmd
  3888                           
  3889                           ;lcd_22.c: 110: post_cmd(0x0008,0x0000);
  3890  0688  27E8  120A  118A   	fcall	PL15	;call to abstracted procedure
  3891  068B  272F  120A  118A   	fcall	_post_cmd
  3892                           
  3893                           ;lcd_22.c: 111: post_cmd(0x0009,0x00EF);
  3894  068E  27C6  120A  118A   	fcall	PL9	;call to abstracted procedure
  3895  0691  272F  120A  118A   	fcall	_post_cmd
  3896                           
  3897                           ;lcd_22.c: 112: post_cmd(0x000a,0x0000);
  3898  0694  27DC  120A  118A   	fcall	PL13	;call to abstracted procedure
  3899  0697  272F  120A  118A   	fcall	_post_cmd
  3900                           
  3901                           ;lcd_22.c: 113: post_cmd(0x000b,0x013F);
  3902  069A  27BE  120A  118A   	fcall	PL7	;call to abstracted procedure
  3903  069D  272F  120A  118A   	fcall	_post_cmd
  3904                           
  3905                           ;lcd_22.c: 116: post_cmd(0x0029,0x0000);
  3906  06A0  3029               	movlw	41
  3907  06A1  00F2               	movwf	?_post_cmd
  3908  06A2  01F3               	clrf	?_post_cmd+1
  3909  06A3  01F4               	clrf	?_post_cmd+2
  3910  06A4  01F5               	clrf	?_post_cmd+3
  3911  06A5  272F  120A  118A   	fcall	_post_cmd
  3912                           
  3913                           ;lcd_22.c: 117: post_cmd(0x002A,0x0000);
  3914  06A8  302A               	movlw	42
  3915  06A9  00F2               	movwf	?_post_cmd
  3916  06AA  01F3               	clrf	?_post_cmd+1
  3917  06AB  01F4               	clrf	?_post_cmd+2
  3918  06AC  01F5               	clrf	?_post_cmd+3
  3919  06AD  272F  120A  118A   	fcall	_post_cmd
  3920                           
  3921                           ;lcd_22.c: 118: post_cmd(0x002B,0x00EF);
  3922  06B0  302B               	movlw	43
  3923  06B1  00F2               	movwf	?_post_cmd
  3924  06B2  30EF               	movlw	239
  3925  06B3  01F3               	clrf	?_post_cmd+1
  3926  06B4  00F4               	movwf	?_post_cmd+2
  3927  06B5  01F5               	clrf	?_post_cmd+3
  3928  06B6  272F  120A  118A   	fcall	_post_cmd
  3929                           
  3930                           ;lcd_22.c: 119: post_cmd(0x002C,0x013F);
  3931  06B9  302C               	movlw	44
  3932  06BA  00F2               	movwf	?_post_cmd
  3933  06BB  303F               	movlw	63
  3934  06BC  01F3               	clrf	?_post_cmd+1
  3935  06BD  00F4               	movwf	?_post_cmd+2
  3936  06BE  3001               	movlw	1
  3937  06BF  00F5               	movwf	?_post_cmd+3
  3938  06C0  272F  120A  118A   	fcall	_post_cmd
  3939                           
  3940                           ;lcd_22.c: 122: post_cmd(0x0032,0x0002);
  3941  06C3  3032               	movlw	50
  3942  06C4  00F2               	movwf	?_post_cmd
  3943  06C5  3002               	movlw	2
  3944  06C6  01F3               	clrf	?_post_cmd+1
  3945  06C7  00F4               	movwf	?_post_cmd+2
  3946  06C8  01F5               	clrf	?_post_cmd+3
  3947  06C9  272F  120A  118A   	fcall	_post_cmd
  3948                           
  3949                           ;lcd_22.c: 125: post_cmd(0x0033,0x0000);
  3950  06CC  3033               	movlw	51
  3951  06CD  00F2               	movwf	?_post_cmd
  3952  06CE  01F3               	clrf	?_post_cmd+1
  3953  06CF  01F4               	clrf	?_post_cmd+2
  3954  06D0  01F5               	clrf	?_post_cmd+3
  3955  06D1  272F  120A  118A   	fcall	_post_cmd
  3956                           
  3957                           ;lcd_22.c: 128: post_cmd(0x0037,0x0000);
  3958  06D4  3037               	movlw	55
  3959  06D5  00F2               	movwf	?_post_cmd
  3960  06D6  01F3               	clrf	?_post_cmd+1
  3961  06D7  01F4               	clrf	?_post_cmd+2
  3962  06D8  01F5               	clrf	?_post_cmd+3
  3963  06D9  272F  120A  118A   	fcall	_post_cmd
  3964                           
  3965                           ;lcd_22.c: 131: post_cmd(0x003B,0x0001);
  3966  06DC  303B               	movlw	59
  3967  06DD  27E2  120A  118A   	fcall	PL14	;call to abstracted procedure
  3968  06E0  272F  120A  118A   	fcall	_post_cmd
  3969                           
  3970                           ;lcd_22.c: 134: post_cmd(0x0004,0x0000);
  3971  06E3  3004               	movlw	4
  3972  06E4  00F2               	movwf	?_post_cmd
  3973  06E5  01F3               	clrf	?_post_cmd+1
  3974  06E6  01F4               	clrf	?_post_cmd+2
  3975  06E7  01F5               	clrf	?_post_cmd+3
  3976  06E8  272F  120A  118A   	fcall	_post_cmd
  3977                           
  3978                           ;lcd_22.c: 137: post_cmd(0x0005,0x0010);
  3979  06EB  3005               	movlw	5
  3980  06EC  27EE  120A  118A   	fcall	PL16	;call to abstracted procedure
  3981  06EF  272F  120A  118A   	fcall	_post_cmd
  3982                           
  3983                           ;lcd_22.c: 140: post_cmd(0x0001,0x0000);
  3984  06F2  01F2               	clrf	?_post_cmd
  3985  06F3  0AF2               	incf	?_post_cmd,f
  3986  06F4  01F3               	clrf	?_post_cmd+1
  3987  06F5  01F4               	clrf	?_post_cmd+2
  3988  06F6  01F5               	clrf	?_post_cmd+3
  3989  06F7  272F  120A  118A   	fcall	_post_cmd
  3990                           
  3991                           ;lcd_22.c: 143: post_cmd(0x0000,0x0000);
  3992  06FA  01F2               	clrf	?_post_cmd
  3993  06FB  01F3               	clrf	?_post_cmd+1
  3994  06FC  01F4               	clrf	?_post_cmd+2
  3995  06FD  01F5               	clrf	?_post_cmd+3
  3996  06FE  272F  120A  118A   	fcall	_post_cmd
  3997                           
  3998                           ;lcd_22.c: 145: {TRISA=0;RA1=0;};
  3999                           
  4000                           ;lcd_22.c: 146: post_data(0x0E);
  4001  0701  27B6  120A  118A   	fcall	PL6	;call to abstracted procedure
  4002  0704  2743  120A  118A   	fcall	_post_data
  4003                           
  4004                           ;lcd_22.c: 147: {TRISA=0;RA1=1;};
  4005  0707  1683               	bsf	3,5	;RP0=1, select bank1
  4006  0708  0185               	clrf	5	;volatile
  4007  0709  1283               	bcf	3,5	;RP0=0, select bank0
  4008  070A  1485               	bsf	5,1
  4009                           
  4010                           ;lcd_22.c: 148: for(x=0; x<240; x++)
  4011  070B  01F6               	clrf	init_lcd@x
  4012  070C  01F7               	clrf	init_lcd@x+1
  4013  070D                     l3164:	
  4014                           
  4015                           ;lcd_22.c: 149: {
  4016                           ;lcd_22.c: 150: for(y=0; y<320; y++)
  4017  070D  01F8               	clrf	init_lcd@y
  4018  070E  01F9               	clrf	init_lcd@y+1
  4019  070F                     l3170:	
  4020                           
  4021                           ;lcd_22.c: 151: {
  4022                           ;lcd_22.c: 152: post_data(0xFFE0);
  4023  070F  30E0               	movlw	224
  4024  0710  00F0               	movwf	?_post_data
  4025  0711  30FF               	movlw	255
  4026  0712  00F1               	movwf	?_post_data+1
  4027  0713  2743  120A  118A   	fcall	_post_data
  4028  0716  0AF8               	incf	init_lcd@y,f
  4029  0717  1903               	skipnz
  4030  0718  0AF9               	incf	init_lcd@y+1,f
  4031  0719  3001               	movlw	1
  4032  071A  0279               	subwf	init_lcd@y+1,w
  4033  071B  3040               	movlw	64
  4034  071C  1903               	skipnz
  4035  071D  0278               	subwf	init_lcd@y,w
  4036  071E  1C03               	skipc
  4037  071F  2F0F               	goto	l3170
  4038  0720  0AF6               	incf	init_lcd@x,f
  4039  0721  1903               	skipnz
  4040  0722  0AF7               	incf	init_lcd@x+1,f
  4041  0723  3000               	movlw	0
  4042  0724  0277               	subwf	init_lcd@x+1,w
  4043  0725  30F0               	movlw	240
  4044  0726  1903               	skipnz
  4045  0727  0276               	subwf	init_lcd@x,w
  4046  0728  1C03               	skipc
  4047  0729  2F0D               	goto	l3164
  4048                           
  4049                           ;lcd_22.c: 153: }
  4050                           ;lcd_22.c: 154: }
  4051                           ;lcd_22.c: 156: {TRISA=0;RA0=1;};
  4052  072A  1683               	bsf	3,5	;RP0=1, select bank1
  4053  072B  0185               	clrf	5	;volatile
  4054  072C  1283               	bcf	3,5	;RP0=0, select bank0
  4055  072D  1405               	bsf	5,0
  4056  072E  0008               	return
  4057  072F                     __end_of_init_lcd:	
  4058  072F                     __ptext305:	
  4059 ;; =============== function _init_lcd ends ============
  4060                           
  4061                           
  4062 ;; *************** function _post_cmd *****************
  4063 ;; Defined at:
  4064 ;;		line 58 in file "C:\Users\Work\Desktop\zjpack\program\PIC\test\lcd22\pic_lcd22_show\lcd_22.c"
  4065 ;; Parameters:    Size  Location     Type
  4066 ;;  index           2    2[COMMON] unsigned short 
  4067 ;;  cmd             2    4[COMMON] unsigned short 
  4068 ;; Auto vars:     Size  Location     Type
  4069 ;;		None
  4070 ;; Return value:  Size  Location     Type
  4071 ;;		None               void
  4072 ;; Registers used:
  4073 ;;		wreg, status,2, status,0, pclath, cstack
  4074 ;; Tracked objects:
  4075 ;;		On entry : 60/0
  4076 ;;		On exit  : 60/0
  4077 ;;		Unchanged: FFF9F/0
  4078 ;; Data sizes:     COMMON   BANK0   BANK1   BANK3   BANK2
  4079 ;;      Params:         4       0       0       0       0
  4080 ;;      Locals:         0       0       0       0       0
  4081 ;;      Temps:          0       0       0       0       0
  4082 ;;      Totals:         4       0       0       0       0
  4083 ;;Total ram usage:        4 bytes
  4084 ;; Hardware stack levels used:    1
  4085 ;; Hardware stack levels required when called:    1
  4086 ;; This function calls:
  4087 ;;		_post_data
  4088 ;; This function is called by:
  4089 ;;		_init_lcd
  4090 ;;		_LCD_test
  4091 ;;		_DisplayChar
  4092 ;;		_DisplayChar_Reverse
  4093 ;; This function uses a non-reentrant model
  4094 ;;
  4095  072F                     _post_cmd:	
  4096                           
  4097                           ;lcd_22.c: 59: {TRISA=0;RA1=0;};
  4098                           
  4099                           ; Regs used in _post_cmd: [wreg+status,2+status,0+pclath+cstack]
  4100  072F  1683               	bsf	3,5	;RP0=1, select bank1
  4101  0730  0185               	clrf	5	;volatile
  4102  0731  1283               	bcf	3,5	;RP0=0, select bank0
  4103  0732  1085               	bcf	5,1
  4104                           
  4105                           ;lcd_22.c: 60: post_data(index);
  4106  0733  0873               	movf	post_cmd@index+1,w
  4107  0734  00F1               	movwf	?_post_data+1
  4108  0735  0872               	movf	post_cmd@index,w
  4109  0736  00F0               	movwf	?_post_data
  4110  0737  2743  120A  118A   	fcall	_post_data
  4111                           
  4112                           ;lcd_22.c: 61: {TRISA=0;RA1=1;};
  4113  073A  1683               	bsf	3,5	;RP0=1, select bank1
  4114  073B  0185               	clrf	5	;volatile
  4115  073C  1283               	bcf	3,5	;RP0=0, select bank0
  4116  073D  1485               	bsf	5,1
  4117                           
  4118                           ;lcd_22.c: 62: post_data(cmd);
  4119  073E  0875               	movf	post_cmd@cmd+1,w
  4120  073F  00F1               	movwf	?_post_data+1
  4121  0740  0874               	movf	post_cmd@cmd,w
  4122  0741  00F0               	movwf	?_post_data
  4123  0742  2F43               	ljmp	l3030
  4124  0743                     __end_of_post_cmd:	
  4125  0743                     __ptext308:	
  4126 ;; =============== function _swap ends ============
  4127                           
  4128                           
  4129 ;; *************** function _post_data *****************
  4130 ;; Defined at:
  4131 ;;		line 31 in file "C:\Users\Work\Desktop\zjpack\program\PIC\test\lcd22\pic_lcd22_show\lcd_22.c"
  4132 ;; Parameters:    Size  Location     Type
  4133 ;;  data            2    0[COMMON] unsigned short 
  4134 ;; Auto vars:     Size  Location     Type
  4135 ;;		None
  4136 ;; Return value:  Size  Location     Type
  4137 ;;		None               void
  4138 ;; Registers used:
  4139 ;;		wreg
  4140 ;; Tracked objects:
  4141 ;;		On entry : 60/0
  4142 ;;		On exit  : 60/0
  4143 ;;		Unchanged: FFF9F/0
  4144 ;; Data sizes:     COMMON   BANK0   BANK1   BANK3   BANK2
  4145 ;;      Params:         2       0       0       0       0
  4146 ;;      Locals:         0       0       0       0       0
  4147 ;;      Temps:          0       0       0       0       0
  4148 ;;      Totals:         2       0       0       0       0
  4149 ;;Total ram usage:        2 bytes
  4150 ;; Hardware stack levels used:    1
  4151 ;; This function calls:
  4152 ;;		Nothing
  4153 ;; This function is called by:
  4154 ;;		_post_cmd
  4155 ;;		_init_lcd
  4156 ;;		_LCD_test
  4157 ;;		_DisplayChar
  4158 ;;		_DisplayChar_Reverse
  4159 ;; This function uses a non-reentrant model
  4160 ;;
  4161  0743                     _post_data:	
  4162  0743                     l3030:	
  4163                           ; Regs used in _post_data: [wreg]
  4164                           
  4165                           
  4166                           ;lcd_22.c: 34: SSPBUF=(u8)(data>>8);
  4167  0743  0871               	movf	post_data@data+1,w
  4168  0744  0093               	movwf	19	;volatile
  4169  0745                     l1415:	
  4170                           ;lcd_22.c: 35: while(!SSPIF);
  4171                           
  4172  0745  1D8C               	btfss	12,3
  4173  0746  2F45               	goto	l1415
  4174                           
  4175                           ;lcd_22.c: 36: SSPIF=0;
  4176  0747  118C               	bcf	12,3
  4177                           
  4178                           ;lcd_22.c: 40: SSPBUF=(u8)(data);
  4179  0748  0870               	movf	post_data@data,w
  4180  0749  0093               	movwf	19	;volatile
  4181  074A                     l1418:	
  4182                           ;lcd_22.c: 41: while(!SSPIF);
  4183                           
  4184  074A  1D8C               	btfss	12,3
  4185  074B  2F4A               	goto	l1418
  4186                           
  4187                           ;lcd_22.c: 42: SSPIF=0;
  4188  074C  118C               	bcf	12,3
  4189  074D  0008               	return
  4190  074E                     __end_of_post_data:	
  4191  074E                     __ptext311:	
  4192 ;; =============== function _delay_us ends ============
  4193                           
  4194                           
  4195 ;; *************** function _delay_ms *****************
  4196 ;; Defined at:
  4197 ;;		line 3 in file "C:\Users\Work\Desktop\zjpack\program\PIC\test\lcd22\pic_lcd22_show\system.c"
  4198 ;; Parameters:    Size  Location     Type
  4199 ;;  ms              2    0[COMMON] unsigned short 
  4200 ;; Auto vars:     Size  Location     Type
  4201 ;;  i               1    2[COMMON] unsigned char 
  4202 ;; Return value:  Size  Location     Type
  4203 ;;		None               void
  4204 ;; Registers used:
  4205 ;;		wreg, status,2, status,0
  4206 ;; Tracked objects:
  4207 ;;		On entry : 60/0
  4208 ;;		On exit  : 60/0
  4209 ;;		Unchanged: FFF9F/0
  4210 ;; Data sizes:     COMMON   BANK0   BANK1   BANK3   BANK2
  4211 ;;      Params:         2       0       0       0       0
  4212 ;;      Locals:         1       0       0       0       0
  4213 ;;      Temps:          0       0       0       0       0
  4214 ;;      Totals:         3       0       0       0       0
  4215 ;;Total ram usage:        3 bytes
  4216 ;; Hardware stack levels used:    1
  4217 ;; This function calls:
  4218 ;;		Nothing
  4219 ;; This function is called by:
  4220 ;;		_main
  4221 ;;		_LCD_test
  4222 ;; This function uses a non-reentrant model
  4223 ;;
  4224  074E                     _delay_ms:	
  4225  074E                     l2562:	
  4226                           ;system.c: 4: u8 i;
  4227                           ;system.c: 5: while(ms!=0)
  4228                           
  4229                           ; Regs used in _delay_ms: [wreg+status,2+status,0]
  4230                           
  4231  074E  0871               	movf	delay_ms@ms+1,w
  4232  074F  0470               	iorwf	delay_ms@ms,w
  4233  0750  1903               	btfsc	3,2
  4234  0751  0008               	return
  4235                           
  4236                           ;system.c: 6: {
  4237                           ;system.c: 7: for(i=0;i<250;i++)
  4238  0752  01F2               	clrf	delay_ms@i
  4239  0753                     l2546:	
  4240  0753  30FA               	movlw	250
  4241                           
  4242                           ;system.c: 8: {}
  4243  0754  0AF2               	incf	delay_ms@i,f
  4244  0755  0272               	subwf	delay_ms@i,w
  4245  0756  1C03               	skipc
  4246  0757  2F53               	goto	l2546
  4247                           
  4248                           ;system.c: 9: for(i=0;i<75;i++)
  4249  0758  01F2               	clrf	delay_ms@i
  4250  0759                     l2556:	
  4251  0759  304B               	movlw	75
  4252                           
  4253                           ;system.c: 10: {}
  4254  075A  0AF2               	incf	delay_ms@i,f
  4255  075B  0272               	subwf	delay_ms@i,w
  4256  075C  1C03               	skipc
  4257  075D  2F59               	goto	l2556
  4258                           
  4259                           ;system.c: 11: ms--;
  4260  075E  3001               	movlw	1
  4261  075F  02F0               	subwf	delay_ms@ms,f
  4262  0760  3000               	movlw	0
  4263  0761  1C03               	skipc
  4264  0762  03F1               	decf	delay_ms@ms+1,f
  4265  0763  02F1               	subwf	delay_ms@ms+1,f
  4266  0764  2F4E               	goto	l2562
  4267  0765                     __end_of_delay_ms:	
  4268  0765                     __ptext309:	
  4269 ;; =============== function _post_data ends ============
  4270                           
  4271                           
  4272 ;; *************** function _init_lcd_spi *****************
  4273 ;; Defined at:
  4274 ;;		line 5 in file "C:\Users\Work\Desktop\zjpack\program\PIC\test\lcd22\pic_lcd22_show\lcd_22.c"
  4275 ;; Parameters:    Size  Location     Type
  4276 ;;		None
  4277 ;; Auto vars:     Size  Location     Type
  4278 ;;		None
  4279 ;; Return value:  Size  Location     Type
  4280 ;;		None               void
  4281 ;; Registers used:
  4282 ;;		wreg, status,2
  4283 ;; Tracked objects:
  4284 ;;		On entry : 17F/0
  4285 ;;		On exit  : 17F/0
  4286 ;;		Unchanged: FFE80/0
  4287 ;; Data sizes:     COMMON   BANK0   BANK1   BANK3   BANK2
  4288 ;;      Params:         0       0       0       0       0
  4289 ;;      Locals:         0       0       0       0       0
  4290 ;;      Temps:          0       0       0       0       0
  4291 ;;      Totals:         0       0       0       0       0
  4292 ;;Total ram usage:        0 bytes
  4293 ;; Hardware stack levels used:    1
  4294 ;; This function calls:
  4295 ;;		Nothing
  4296 ;; This function is called by:
  4297 ;;		_init_lcd
  4298 ;; This function uses a non-reentrant model
  4299 ;;
  4300  0765                     _init_lcd_spi:	
  4301                           
  4302                           ;lcd_22.c: 6: TRISC=0X10;
  4303                           
  4304                           ; Regs used in _init_lcd_spi: [wreg+status,2]
  4305  0765  3010               	movlw	16
  4306  0766  1683               	bsf	3,5	;RP0=1, select bank1
  4307  0767  0087               	movwf	7	;volatile
  4308                           
  4309                           ;lcd_22.c: 8: SSPSTAT=0X80;
  4310  0768  3080               	movlw	128
  4311  0769  0094               	movwf	20	;volatile
  4312                           
  4313                           ;lcd_22.c: 9: SSPCON=0X30;
  4314  076A  3030               	movlw	48
  4315  076B  1283               	bcf	3,5	;RP0=0, select bank0
  4316  076C  0094               	movwf	20	;volatile
  4317                           
  4318                           ;lcd_22.c: 10: INTCON=0X00;
  4319  076D  018B               	clrf	11	;volatile
  4320                           
  4321                           ;lcd_22.c: 11: PIR1=0X00;
  4322  076E  018C               	clrf	12	;volatile
  4323  076F  0008               	return
  4324  0770                     __end_of_init_lcd_spi:	
  4325  0770                     __ptext306:	
  4326 ;; =============== function _post_cmd ends ============
  4327                           
  4328                           
  4329 ;; *************** function _lcd_rst *****************
  4330 ;; Defined at:
  4331 ;;		line 50 in file "C:\Users\Work\Desktop\zjpack\program\PIC\test\lcd22\pic_lcd22_show\lcd_22.c"
  4332 ;; Parameters:    Size  Location     Type
  4333 ;;		None
  4334 ;; Auto vars:     Size  Location     Type
  4335 ;;		None
  4336 ;; Return value:  Size  Location     Type
  4337 ;;		None               void
  4338 ;; Registers used:
  4339 ;;		wreg, status,2, status,0, pclath, cstack
  4340 ;; Tracked objects:
  4341 ;;		On entry : 17F/0
  4342 ;;		On exit  : 17F/0
  4343 ;;		Unchanged: FFE80/0
  4344 ;; Data sizes:     COMMON   BANK0   BANK1   BANK3   BANK2
  4345 ;;      Params:         0       0       0       0       0
  4346 ;;      Locals:         0       0       0       0       0
  4347 ;;      Temps:          0       0       0       0       0
  4348 ;;      Totals:         0       0       0       0       0
  4349 ;;Total ram usage:        0 bytes
  4350 ;; Hardware stack levels used:    1
  4351 ;; Hardware stack levels required when called:    1
  4352 ;; This function calls:
  4353 ;;		_delay_us
  4354 ;; This function is called by:
  4355 ;;		_init_lcd
  4356 ;; This function uses a non-reentrant model
  4357 ;;
  4358  0770                     _lcd_rst:	
  4359                           
  4360                           ;lcd_22.c: 51: {TRISA=0;RA2=0;};
  4361                           
  4362                           ; Regs used in _lcd_rst: [wreg+status,2+status,0+pclath+cstack]
  4363  0770  1683               	bsf	3,5	;RP0=1, select bank1
  4364  0771  0185               	clrf	5	;volatile
  4365  0772  1283               	bcf	3,5	;RP0=0, select bank0
  4366  0773  3003               	movlw	3
  4367  0774  1105               	bcf	5,2
  4368                           
  4369                           ;lcd_22.c: 52: delay_us(3);
  4370  0775  00F0               	movwf	?_delay_us
  4371  0776  01F1               	clrf	?_delay_us+1
  4372  0777  2782  120A  118A   	fcall	_delay_us
  4373                           
  4374                           ;lcd_22.c: 53: {TRISA=0;RA2=1;};
  4375  077A  1683               	bsf	3,5	;RP0=1, select bank1
  4376  077B  0185               	clrf	5	;volatile
  4377  077C  1283               	bcf	3,5	;RP0=0, select bank0
  4378  077D  3003               	movlw	3
  4379  077E  1505               	bsf	5,2
  4380                           
  4381                           ;lcd_22.c: 54: delay_us(3);
  4382  077F  00F0               	movwf	?_delay_us
  4383  0780  01F1               	clrf	?_delay_us+1
  4384  0781  2F82               	ljmp	l2588
  4385  0782                     __end_of_lcd_rst:	
  4386  0782                     __ptext310:	
  4387 ;; =============== function _init_lcd_spi ends ============
  4388                           
  4389                           
  4390 ;; *************** function _delay_us *****************
  4391 ;; Defined at:
  4392 ;;		line 16 in file "C:\Users\Work\Desktop\zjpack\program\PIC\test\lcd22\pic_lcd22_show\system.c"
  4393 ;; Parameters:    Size  Location     Type
  4394 ;;  us              2    0[COMMON] unsigned short 
  4395 ;; Auto vars:     Size  Location     Type
  4396 ;;  i               1    2[COMMON] unsigned char 
  4397 ;; Return value:  Size  Location     Type
  4398 ;;		None               void
  4399 ;; Registers used:
  4400 ;;		wreg, status,2, status,0
  4401 ;; Tracked objects:
  4402 ;;		On entry : 17F/0
  4403 ;;		On exit  : 17F/0
  4404 ;;		Unchanged: FFE80/0
  4405 ;; Data sizes:     COMMON   BANK0   BANK1   BANK3   BANK2
  4406 ;;      Params:         2       0       0       0       0
  4407 ;;      Locals:         1       0       0       0       0
  4408 ;;      Temps:          0       0       0       0       0
  4409 ;;      Totals:         3       0       0       0       0
  4410 ;;Total ram usage:        3 bytes
  4411 ;; Hardware stack levels used:    1
  4412 ;; This function calls:
  4413 ;;		Nothing
  4414 ;; This function is called by:
  4415 ;;		_lcd_rst
  4416 ;; This function uses a non-reentrant model
  4417 ;;
  4418  0782                     _delay_us:	
  4419  0782                     l2588:	
  4420                           ;system.c: 17: u8 i;
  4421                           ;system.c: 18: while(us!=0)
  4422                           
  4423                           ; Regs used in _delay_us: [wreg+status,2+status,0]
  4424                           
  4425  0782  0871               	movf	delay_us@us+1,w
  4426  0783  0470               	iorwf	delay_us@us,w
  4427  0784  1903               	btfsc	3,2
  4428  0785  0008               	return
  4429                           
  4430                           ;system.c: 19: {
  4431                           ;system.c: 20: for(i=0;i<25;i++)
  4432  0786  01F2               	clrf	delay_us@i
  4433  0787                     l2572:	
  4434  0787  3019               	movlw	25
  4435                           
  4436                           ;system.c: 21: {}
  4437  0788  0AF2               	incf	delay_us@i,f
  4438  0789  0272               	subwf	delay_us@i,w
  4439  078A  1C03               	skipc
  4440  078B  2F87               	goto	l2572
  4441                           
  4442                           ;system.c: 22: for(i=0;i<7;i++)
  4443  078C  01F2               	clrf	delay_us@i
  4444  078D                     l2582:	
  4445  078D  3007               	movlw	7
  4446                           
  4447                           ;system.c: 23: {}
  4448  078E  0AF2               	incf	delay_us@i,f
  4449  078F  0272               	subwf	delay_us@i,w
  4450  0790  1C03               	skipc
  4451  0791  2F8D               	goto	l2582
  4452                           
  4453                           ;system.c: 24: us--;
  4454  0792  3001               	movlw	1
  4455  0793  02F0               	subwf	delay_us@us,f
  4456  0794  3000               	movlw	0
  4457  0795  1C03               	skipc
  4458  0796  03F1               	decf	delay_us@us+1,f
  4459  0797  02F1               	subwf	delay_us@us+1,f
  4460  0798  2F82               	goto	l2588
  4461  0799                     __end_of_delay_us:	
  4462  0799                     PL2:	
  4463  0799  00F8               	movwf	??_DisplayChar_Reverse
  4464  079A  30F0               	movlw	240
  4465  079B  01F9               	clrf	??_DisplayChar_Reverse+1
  4466  079C  0EF8               	swapf	??_DisplayChar_Reverse,f
  4467  079D  0EF9               	swapf	??_DisplayChar_Reverse+1,f
  4468  079E  05F9               	andwf	??_DisplayChar_Reverse+1,f
  4469  079F  0878               	movf	??_DisplayChar_Reverse,w
  4470  07A0  390F               	andlw	15
  4471  07A1  04F9               	iorwf	??_DisplayChar_Reverse+1,f
  4472  07A2  30F0               	movlw	240
  4473  07A3  05F8               	andwf	??_DisplayChar_Reverse,f
  4474  07A4  0878               	movf	??_DisplayChar_Reverse,w
  4475  07A5  0008               	return
  4476  07A6                     PL5:	
  4477  07A6  00F2               	movwf	?_post_cmd
  4478  07A7  01F3               	clrf	?_post_cmd+1
  4479  07A8  0876               	movf	DisplayChar_Reverse@postion_x,w
  4480  07A9  00F8               	movwf	??_DisplayChar_Reverse
  4481  07AA  01F9               	clrf	??_DisplayChar_Reverse+1
  4482  07AB  1003               	clrc
  4483  07AC  0DF8               	rlf	??_DisplayChar_Reverse,f
  4484  07AD  0DF9               	rlf	??_DisplayChar_Reverse+1,f
  4485  07AE  1003               	clrc
  4486  07AF  0DF8               	rlf	??_DisplayChar_Reverse,f
  4487  07B0  0DF9               	rlf	??_DisplayChar_Reverse+1,f
  4488  07B1  1003               	clrc
  4489  07B2  0DF8               	rlf	??_DisplayChar_Reverse,f
  4490  07B3  0DF9               	rlf	??_DisplayChar_Reverse+1,f
  4491  07B4  0878               	movf	??_DisplayChar_Reverse,w
  4492  07B5  0008               	return
  4493  07B6                     PL6:	
  4494  07B6  1683               	bsf	3,5	;RP0=1, select bank1
  4495  07B7  0185               	clrf	5	;volatile
  4496  07B8  1283               	bcf	3,5	;RP0=0, select bank0
  4497  07B9  300E               	movlw	14
  4498  07BA  1085               	bcf	5,1
  4499  07BB  00F0               	movwf	?_post_data
  4500  07BC  01F1               	clrf	?_post_data+1
  4501  07BD  0008               	return
  4502  07BE                     PL7:	
  4503  07BE  300B               	movlw	11
  4504  07BF  00F2               	movwf	?_post_cmd
  4505  07C0  303F               	movlw	63
  4506  07C1  01F3               	clrf	?_post_cmd+1
  4507  07C2  00F4               	movwf	?_post_cmd+2
  4508  07C3  3001               	movlw	1
  4509  07C4  00F5               	movwf	?_post_cmd+3
  4510  07C5  0008               	return
  4511  07C6                     PL9:	
  4512  07C6  3009               	movlw	9
  4513  07C7  00F2               	movwf	?_post_cmd
  4514  07C8  30EF               	movlw	239
  4515  07C9  01F3               	clrf	?_post_cmd+1
  4516  07CA  00F4               	movwf	?_post_cmd+2
  4517  07CB  01F5               	clrf	?_post_cmd+3
  4518  07CC  0008               	return
  4519  07CD                     PL10:	
  4520  07CD  0D7B               	rlf	LCD_test@n,w
  4521  07CE  3E12               	addlw	low (_colorfol| (0+32768))
  4522  07CF  0084               	movwf	4
  4523  07D0  3097               	movlw	high (_colorfol| (0+32768))
  4524  07D1  1803               	skipnc
  4525  07D2  3E01               	addlw	1
  4526  07D3  00FF               	movwf	127
  4527  07D4  0008               	return
  4528  07D5                     PL11:	
  4529  07D5  00F4               	movwf	?_post_cmd+2
  4530  07D6  0879               	movf	??_DisplayChar_Reverse+1,w
  4531  07D7  1803               	skipnc
  4532  07D8  3E01               	addlw	1
  4533  07D9  3E00               	addlw	0
  4534  07DA  00F5               	movwf	?_post_cmd+3
  4535  07DB  0008               	return
  4536  07DC                     PL13:	
  4537  07DC  300A               	movlw	10
  4538  07DD  00F2               	movwf	?_post_cmd
  4539  07DE  01F3               	clrf	?_post_cmd+1
  4540  07DF  01F4               	clrf	?_post_cmd+2
  4541  07E0  01F5               	clrf	?_post_cmd+3
  4542  07E1  0008               	return
  4543  07E2                     PL14:	
  4544  07E2  00F2               	movwf	?_post_cmd
  4545  07E3  01F3               	clrf	?_post_cmd+1
  4546  07E4  01F4               	clrf	?_post_cmd+2
  4547  07E5  0AF4               	incf	?_post_cmd+2,f
  4548  07E6  01F5               	clrf	?_post_cmd+3
  4549  07E7  0008               	return
  4550  07E8                     PL15:	
  4551  07E8  3008               	movlw	8
  4552  07E9  00F2               	movwf	?_post_cmd
  4553  07EA  01F3               	clrf	?_post_cmd+1
  4554  07EB  01F4               	clrf	?_post_cmd+2
  4555  07EC  01F5               	clrf	?_post_cmd+3
  4556  07ED  0008               	return
  4557  07EE                     PL16:	
  4558  07EE  00F2               	movwf	?_post_cmd
  4559  07EF  3010               	movlw	16
  4560  07F0  01F3               	clrf	?_post_cmd+1
  4561  07F1  00F4               	movwf	?_post_cmd+2
  4562  07F2  01F5               	clrf	?_post_cmd+3
  4563  07F3  0008               	return
  4564  07F4                     PL17:	
  4565  07F4  3006               	movlw	6
  4566  07F5  00F2               	movwf	?_post_cmd
  4567  07F6  01F3               	clrf	?_post_cmd+1
  4568  07F7  01F4               	clrf	?_post_cmd+2
  4569  07F8  01F5               	clrf	?_post_cmd+3
  4570  07F9  0008               	return
  4571  07FA                     PL18:	
  4572  07FA  3007               	movlw	7
  4573  07FB  00F2               	movwf	?_post_cmd
  4574  07FC  01F3               	clrf	?_post_cmd+1
  4575  07FD  01F4               	clrf	?_post_cmd+2
  4576  07FE  01F5               	clrf	?_post_cmd+3
  4577  07FF  0008               	return
  4578                           
  4579                           	psect	text312
  4580  02A3                     __ptext312:	
  4581 ;; =============== function _delay_ms ends ============
  4582                           
  4583                           
  4584 ;; *************** function _init_mcu *****************
  4585 ;; Defined at:
  4586 ;;		line 17 in file "C:\Users\Work\Desktop\zjpack\program\PIC\test\lcd22\pic_lcd22_show\main.c"
  4587 ;; Parameters:    Size  Location     Type
  4588 ;;		None
  4589 ;; Auto vars:     Size  Location     Type
  4590 ;;		None
  4591 ;; Return value:  Size  Location     Type
  4592 ;;		None               void
  4593 ;; Registers used:
  4594 ;;		wreg, status,2
  4595 ;; Tracked objects:
  4596 ;;		On entry : 17F/0
  4597 ;;		On exit  : 17F/0
  4598 ;;		Unchanged: FFE80/0
  4599 ;; Data sizes:     COMMON   BANK0   BANK1   BANK3   BANK2
  4600 ;;      Params:         0       0       0       0       0
  4601 ;;      Locals:         0       0       0       0       0
  4602 ;;      Temps:          0       0       0       0       0
  4603 ;;      Totals:         0       0       0       0       0
  4604 ;;Total ram usage:        0 bytes
  4605 ;; Hardware stack levels used:    1
  4606 ;; This function calls:
  4607 ;;		Nothing
  4608 ;; This function is called by:
  4609 ;;		_main
  4610 ;; This function uses a non-reentrant model
  4611 ;;
  4612  02A3                     _init_mcu:	
  4613                           
  4614                           ;main.c: 18: TRISA=0;
  4615                           
  4616                           ; Regs used in _init_mcu: [wreg+status,2]
  4617  02A3  1683               	bsf	3,5	;RP0=1, select bank1
  4618  02A4  0185               	clrf	5	;volatile
  4619                           
  4620                           ;main.c: 19: PORTA=0XFF;
  4621  02A5  30FF               	movlw	255
  4622  02A6  1283               	bcf	3,5	;RP0=0, select bank0
  4623  02A7  0085               	movwf	5	;volatile
  4624  02A8  0008               	return
  4625  02A9                     __end_of_init_mcu:	
  4626                           
  4627                           	psect	text313
  4628  0000                     __ptext313:	
  4629 ;; =============== function _init_mcu ends ============
  4630                           
  4631  007E                     btemp	set	126	;btemp
  4632  007E                     wtemp0	set	126


HI-TECH Software PICC Macro Assembler V9.82 build 9453 
Symbol Table                                                                                   Wed Oct 26 19:06:44 2011

                           pc 0002                            fsr 0004                           l709 0000  
                         l719 0000                           l693 0000                           l697 02FF  
                         _RA0 0028                           _RA1 0029                           _RA2 002A  
                         u315 0380                           fsr0 0004                           indf 0000  
                        l1412 0000                          l3100 0000                          l1421 0000  
                        l3030 0743                          l3110 0000                          l3102 0000  
                        l1415 0745                          l3032 0000                          l1424 0000  
                        l3120 0000                          l3112 0000                          l3104 0000  
                        l3200 0000                          l1418 074A                          l3042 0000  
                        l3034 0000                          l1434 0000                          l3130 0000  
                        l3122 0000                          l3114 0000                          l3106 0000  
                        l3202 0000                          l1427 0000                          l3044 0000  
                        l3036 0000                          l3060 0000                          l3052 0000  
                        l3140 0000                          l3132 0000                          l3124 0000  
                        l3116 0000                          l3108 0000                          l3204 0000  
                        l1452 0404                          l3300 0000                          l1461 04C7  
                        l3046 0373                          l3038 0000                          l3054 0000  
                        l3150 0000                          l3142 0000                          l3134 0000  
                        l3126 0000                          l3118 0000                          l3070 0000  
                        l3062 0000                          l3230 0000                          l3222 0528  
                        l3206 0000                          l3310 0000                          l3302 0000  
                        l1447 0000                          l3048 038F                          l3056 0000  
                        l3152 0000                          l3144 0000                          l3136 0000  
                        l3128 0000                          l3080 0000                          l3072 0000  
                        l3064 0000                          l3240 0546                          l3224 0000  
                        l3216 0000                          l3208 0000                          l1456 0000  
                        l3320 0000                          l3312 0000                          l3304 0000  
                        l3400 0000                          l1473 0000                          l1465 0000  
                        l3058 0000                          l3170 070F                          l3154 0000  
                        l3146 0000                          l3138 0000                          l3090 0000  
                        l3082 0000                          l3074 0000                          l3066 0000  
                        l3250 0000                          l3242 0000                          l3234 0000  
                        l3226 0000                          l3306 0000                          l3410 0000  
                        l3402 0000                          l2620 0000                          l3172 0000  
                        l3164 070D                          l3156 0000                          l3148 0000  
                        l3092 0000                          l3084 0000                          l3076 0000  
                        l3068 0000                          l3252 0000                          l3244 0000  
                        l3332 0000                          l3308 0000                          l3420 034F  
                        l3412 0304                          l3404 0000                          l2534 0000  
                        l2622 0000                          l3182 0000                          l3174 0000  
                        l3158 0000                          l3094 0000                          l3086 0000  
                        l3078 0000                          l3246 0000                          l3190 0000  
                        l3342 0000                          l3334 0000                          l3318 03F6  
                        l3350 0000                          l3430 036A                          l3422 035F  
                        l3414 0325                          l1487 0000                          l2536 0000  
                        l2624 0000                          l3096 0000                          l3088 0000  
                        l3272 0000                          l3264 0585                          l3248 0000  
                        l3192 0000                          l3184 0000                          l3328 0409  
                        l3360 0000                          l3352 0000                          l3344 0000  
                        l3408 0000                          l3432 032D                          l3440 0000  
                        l2546 0753                          l2562 074E                          l2538 0000  
                        l2626 0000                          l2618 0000                          l3178 0000  
                        l3098 0000                          l3282 0000                          l3266 0000  
                        l3258 0583                          l3194 0000                          l3186 0000  
                        l3338 0000                          l3290 0000                          l3370 0000  
                        l3362 0000                          l3354 0000                          l3346 0000  
                        l3426 0000                          l3418 0000                          l3450 0000  
                        l3442 0000                          l3434 0000                          l2556 0759  
                        l2548 0000                          l2572 0787                          l3276 0000  
                        l3268 0000                          l3196 0000                          l3188 0000  
                        l3292 0000                          l3284 0000                          l3380 0000  
                        l3372 0000                          l3364 0000                          l3356 0000  
                        l3348 0000                          l3452 0000                          l3444 0000  
                        l3436 0000                          l2558 0000                          l2582 078D  
                        l2574 0000                          l2590 0000                          l3278 0000  
                        l3198 0000                          l3294 0000                          l3286 0000  
                        l3366 0000                          l3358 0000                          l3446 0000  
                        l3438 0000                          l2584 0000                          l2592 0000  
                        l3296 0000                          l3288 0000                          l3392 0000  
                        l3368 0000                          l3448 0000                          l2594 0000  
                        l3298 0000                          l3394 0000                          l3378 04B0  
                        l2588 0782                          l3388 04CC                          l3398 0000  
                        STR_1 1F22                          STR_2 1F22                          _PIR1 000C  
                        _main 02B7                          _swap 036E                          btemp 007E  
                        start 0000           __end_of_DisplayChar 0423              __end_of_LCD_test 05AC  
                       ?_main 0070                         ?_swap 0070                         _PORTA 0005  
                       _PORTB 0006                         _TRISA 0085                         _TRISB 0086  
                       _TRISC 0087                         _SSPIF 0063               __end_of_lcd_rst 0782  
                       _ascii 1722           _DisplayChar_Reverse 044D                         pclath 000A  
                       swap@b 0036                         swap@i 0074                         swap@s 0073  
                       status 0003                         wtemp0 007E                  __end_of_main 0300  
        ?_DisplayChar_Reverse 0076                  __end_of_swap 0392                   LCD_test@num 0079  
                      ??_main 007C                        ??_swap 0071                        _INTCON 000B  
               ?_init_lcd_spi 0070                        _SSPCON 0014                        _SSPBUF 0013  
               post_cmd@index 0072                 post_data@data 0070              __end_of_delay_ms 0765  
            __end_of_delay_us 0799                   _DisplayChar 0392         ??_DisplayChar_Reverse 0078  
            __end_of_init_lcd 072F              __end_of_init_mcu 02A9                     ??_lcd_rst 0073  
            __end_of_post_cmd 0743                        swap@sz 0070                ??_init_lcd_spi 0070  
                   ?_LCD_test 0070                __pcstackCOMMON 0070                     LCD_test@i 0078  
                   LCD_test@n 007B                  LCD_test@temp 0076                    __pbssBANK0 0036  
                  ??_LCD_test 0076                    __pmaintext 02B7         __end_of_DisplayString 036E  
                   ?_delay_ms 0070                     ?_delay_us 0070            __size_of_post_data 000B  
                     _SSPSTAT 0094                     ?_init_lcd 0070                     ?_init_mcu 0070  
                   ?_post_cmd 0072          __end_of_init_lcd_spi 0770                       _lcd_rst 0770  
                  ??_delay_ms 0072                    ??_delay_us 0072                    delay_ms@ms 0070  
        end_of_initialization 02B3                    delay_us@us 0070                    ??_init_lcd 0076  
                  ??_init_mcu 0070               DisplayChar@casc 0020                  ?_DisplayChar 0076  
           __end_of_post_data 074E                    ??_post_cmd 0076                  __pstringtext 1700  
        DisplayString@Reverse 002A   __end_of_DisplayChar_Reverse 04E1             __size_of_LCD_test 00CB  
                 post_cmd@cmd 0074           start_initialization 02A9         __size_of_init_lcd_spi 000B  
               __pcstackBANK0 0020             __size_of_delay_ms 0017             __size_of_delay_us 0017  
                _init_lcd_spi 0765             __size_of_init_lcd 0183             __size_of_init_mcu 0006  
                   __ptext300 0300                     __ptext301 044D                     __ptext310 0782  
                   __ptext302 0392                     __ptext311 074E                     __ptext303 04E1  
                   __ptext312 02A3                     __ptext304 05AC                     __ptext313 0000  
                   __ptext305 072F                     __ptext306 0770                     __ptext307 036E  
                   __ptext308 0743                     __ptext309 0765          __size_of_DisplayChar 0091  
           __size_of_post_cmd 0014                      ?_lcd_rst 0070        __size_of_DisplayString 006E  
                   delay_ms@i 0072                     delay_us@i 0072                      _LCD_test 04E1  
                   _post_data 0743                   __stringbase 1712                DisplayString@a 002B  
              DisplayString@i 0035                DisplayString@s 0026                DisplayString@x 0028  
              DisplayString@y 0029                     init_lcd@x 0076                     init_lcd@y 0078  
               _DisplayString 0300                    ?_post_data 0070              __size_of_lcd_rst 0012  
                    _delay_ms 074E                      _delay_us 0782                      _colorfol 1712  
                    _init_lcd 05AC                      _init_mcu 02A3                 __size_of_main 0049  
DisplayChar_Reverse@postion_x 0076  DisplayChar_Reverse@postion_y 0077                 __size_of_swap 0024  
__size_of_DisplayChar_Reverse 0094                      _post_cmd 072F                ?_DisplayString 0026  
        DisplayChar@postion_x 0076          DisplayChar@postion_y 0077                     stringcode 170A  
                DisplayChar@b 0023                  DisplayChar@i 0024                  DisplayChar@j 0025  
                DisplayChar@p 0021                   ??_post_data 0072                      stringtab 1700  
     DisplayChar_Reverse@casc 0020                 ??_DisplayChar 0078          DisplayChar_Reverse@b 0023  
        DisplayChar_Reverse@i 0024          DisplayChar_Reverse@j 0025          DisplayChar_Reverse@p 0021  
             ??_DisplayString 007A  
